
build/zephyr/zephyr.elf:     file format elf32-i386


Disassembly of section text:

00100000 <__start>:
  100000:	3d 02 b0 ad 2b       	cmp    $0x2badb002,%eax
  100005:	74 02                	je     100009 <__start+0x9>
  100007:	31 db                	xor    %ebx,%ebx
  100009:	b0 ff                	mov    $0xff,%al
  10000b:	e6 21                	out    %al,$0x21
  10000d:	e6 a1                	out    %al,$0xa1
  10000f:	eb 0f                	jmp    100020 <__start+0x20>
  100011:	8d 76 00             	lea    0x0(%esi),%esi
  100014:	02 b0 ad 1b 02 00    	add    0x21bad(%eax),%dh
  10001a:	00 00                	add    %al,(%eax)
  10001c:	fc                   	cld
  10001d:	4f                   	dec    %edi
  10001e:	52                   	push   %edx
  10001f:	e4 0f                	in     $0xf,%al
  100021:	20 c0                	and    %al,%al
  100023:	25 ff ff ff 9f       	and    $0x9fffffff,%eax
  100028:	0f 22 c0             	mov    %eax,%cr0
  10002b:	fa                   	cli
  10002c:	0f 01 15 b8 06 11 00 	lgdtl  0x1106b8
  100033:	66 b8 10 00          	mov    $0x10,%ax
  100037:	8e d8                	mov    %eax,%ds
  100039:	8e c0                	mov    %eax,%es
  10003b:	8e d0                	mov    %eax,%ss
  10003d:	66 31 c0             	xor    %ax,%ax
  100040:	8e e0                	mov    %eax,%fs
  100042:	8e e8                	mov    %eax,%gs
  100044:	ea 4b 00 10 00 08 00 	ljmp   $0x8,$0x10004b

0010004b <__csSet>:
  10004b:	0f 20 c0             	mov    %cr0,%eax
  10004e:	83 c8 2e             	or     $0x2e,%eax
  100051:	0f 22 c0             	mov    %eax,%cr0
  100054:	bc 00 c0 13 00       	mov    $0x13c000,%esp
  100059:	81 c4 00 18 00 00    	add    $0x1800,%esp
  10005f:	b8 00 30 12 00       	mov    $0x123000,%eax
  100064:	0f 22 d8             	mov    %eax,%cr3
  100067:	0f 20 e0             	mov    %cr4,%eax
  10006a:	83 c8 20             	or     $0x20,%eax
  10006d:	0f 22 e0             	mov    %eax,%cr4

00100070 <_kobject_text_area_used>:
  100070:	b9 80 00 00 c0       	mov    $0xc0000080,%ecx
  100075:	0f 32                	rdmsr
  100077:	0d 00 08 00 00       	or     $0x800,%eax
  10007c:	0f 30                	wrmsr
  10007e:	0f 20 c0             	mov    %cr0,%eax
  100081:	0d 00 00 01 80       	or     $0x80010000,%eax
  100086:	0f 22 c0             	mov    %eax,%cr0
  100089:	0f 01 15 e8 c0 11 00 	lgdtl  0x11c0e8
  100090:	66 b8 18 00          	mov    $0x18,%ax
  100094:	0f 00 d8             	ltr    %eax
  100097:	54                   	push   %esp
  100098:	e8 7a 3f 00 00       	call   104017 <z_x86_early_tls_update_gdt>
  10009d:	5c                   	pop    %esp
  10009e:	e8 86 69 00 00       	call   106a29 <z_bss_zero>
  1000a3:	0f 01 1d c9 00 10 00 	lidtl  0x1000c9
  1000aa:	bd 8c cc 12 00       	mov    $0x12cc8c,%ebp
  1000af:	c7 85 00 00 00 00 01 	movl   $0x1,0x0(%ebp)
  1000b6:	00 00 00 
  1000b9:	89 9d 04 00 00 00    	mov    %ebx,0x4(%ebp)
  1000bf:	68 8c cc 12 00       	push   $0x12cc8c
  1000c4:	e8 1a 25 00 00       	call   1025e3 <z_prep_c>

001000c9 <z_x86_idt>:
  1000c9:	ff 07 50 42 11 00                                   ..PB..

001000cf <hpet_isr_irq2_stub>:
  1000cf:	6a 00                	push   $0x0
  1000d1:	68 95 60 10 00       	push   $0x106095
  1000d6:	e9 ba 3c 00 00       	jmp    103d95 <_interrupt_enter>

001000db <_handle_exc_0_vector_0_stub>:
  1000db:	6a 00                	push   $0x0
  1000dd:	68 03 42 10 00       	push   $0x104203
  1000e2:	e9 60 3c 00 00       	jmp    103d47 <_exception_enter>

001000e7 <_handle_exc_2_vector_2_stub>:
  1000e7:	6a 00                	push   $0x0
  1000e9:	68 10 42 10 00       	push   $0x104210
  1000ee:	e9 54 3c 00 00       	jmp    103d47 <_exception_enter>

001000f3 <_handle_exc_4_vector_4_stub>:
  1000f3:	6a 00                	push   $0x0
  1000f5:	68 1d 42 10 00       	push   $0x10421d
  1000fa:	e9 48 3c 00 00       	jmp    103d47 <_exception_enter>

001000ff <_handle_exc_5_vector_5_stub>:
  1000ff:	6a 00                	push   $0x0
  100101:	68 2a 42 10 00       	push   $0x10422a
  100106:	e9 3c 3c 00 00       	jmp    103d47 <_exception_enter>

0010010b <_handle_exc_6_vector_6_stub>:
  10010b:	6a 00                	push   $0x0
  10010d:	68 37 42 10 00       	push   $0x104237
  100112:	e9 30 3c 00 00       	jmp    103d47 <_exception_enter>

00100117 <_handle_exc_7_vector_7_stub>:
  100117:	6a 00                	push   $0x0
  100119:	68 44 42 10 00       	push   $0x104244
  10011e:	e9 24 3c 00 00       	jmp    103d47 <_exception_enter>

00100123 <_handle_exc_10_vector_10_stub>:
  100123:	68 51 42 10 00       	push   $0x104251
  100128:	e9 1a 3c 00 00       	jmp    103d47 <_exception_enter>

0010012d <_handle_exc_11_vector_11_stub>:
  10012d:	68 5e 42 10 00       	push   $0x10425e
  100132:	e9 10 3c 00 00       	jmp    103d47 <_exception_enter>

00100137 <_handle_exc_12_vector_12_stub>:
  100137:	68 6b 42 10 00       	push   $0x10426b
  10013c:	e9 06 3c 00 00       	jmp    103d47 <_exception_enter>

00100141 <_handle_exc_13_vector_13_stub>:
  100141:	68 78 42 10 00       	push   $0x104278
  100146:	e9 fc 3b 00 00       	jmp    103d47 <_exception_enter>

0010014b <_handle_exc_16_vector_16_stub>:
  10014b:	6a 00                	push   $0x0
  10014d:	68 85 42 10 00       	push   $0x104285
  100152:	e9 f0 3b 00 00       	jmp    103d47 <_exception_enter>

00100157 <_handle_exc_17_vector_17_stub>:
  100157:	68 92 42 10 00       	push   $0x104292
  10015c:	e9 e6 3b 00 00       	jmp    103d47 <_exception_enter>

00100161 <_handle_exc_18_vector_18_stub>:
  100161:	6a 00                	push   $0x0
  100163:	68 9f 42 10 00       	push   $0x10429f
  100168:	e9 da 3b 00 00       	jmp    103d47 <_exception_enter>

0010016d <_z_x86_page_fault_handler_vector_14_stub>:
  10016d:	68 fa 28 10 00       	push   $0x1028fa
  100172:	e9 d0 3b 00 00       	jmp    103d47 <_exception_enter>

00100177 <__udivdi3>:
  100177:	55                   	push   %ebp
  100178:	89 e5                	mov    %esp,%ebp
  10017a:	57                   	push   %edi
  10017b:	56                   	push   %esi
  10017c:	53                   	push   %ebx
  10017d:	83 ec 1c             	sub    $0x1c,%esp
  100180:	8b 55 14             	mov    0x14(%ebp),%edx
  100183:	8b 45 08             	mov    0x8(%ebp),%eax
  100186:	89 45 e0             	mov    %eax,-0x20(%ebp)
  100189:	8b 7d 0c             	mov    0xc(%ebp),%edi
  10018c:	8b 75 10             	mov    0x10(%ebp),%esi
  10018f:	89 d1                	mov    %edx,%ecx
  100191:	85 d2                	test   %edx,%edx
  100193:	75 2f                	jne    1001c4 <__udivdi3+0x4d>
  100195:	39 f7                	cmp    %esi,%edi
  100197:	73 06                	jae    10019f <__udivdi3+0x28>
  100199:	89 fa                	mov    %edi,%edx
  10019b:	f7 f6                	div    %esi
  10019d:	eb 1e                	jmp    1001bd <__udivdi3+0x46>
  10019f:	89 f3                	mov    %esi,%ebx
  1001a1:	85 f6                	test   %esi,%esi
  1001a3:	75 0b                	jne    1001b0 <__udivdi3+0x39>
  1001a5:	b8 01 00 00 00       	mov    $0x1,%eax
  1001aa:	31 d2                	xor    %edx,%edx
  1001ac:	f7 f6                	div    %esi
  1001ae:	89 c3                	mov    %eax,%ebx
  1001b0:	31 d2                	xor    %edx,%edx
  1001b2:	89 f8                	mov    %edi,%eax
  1001b4:	f7 f3                	div    %ebx
  1001b6:	89 c1                	mov    %eax,%ecx
  1001b8:	8b 45 e0             	mov    -0x20(%ebp),%eax
  1001bb:	f7 f3                	div    %ebx
  1001bd:	89 c3                	mov    %eax,%ebx
  1001bf:	e9 99 00 00 00       	jmp    10025d <__udivdi3+0xe6>
  1001c4:	39 d7                	cmp    %edx,%edi
  1001c6:	0f 82 89 00 00 00    	jb     100255 <__udivdi3+0xde>
  1001cc:	0f bd c2             	bsr    %edx,%eax
  1001cf:	83 f0 1f             	xor    $0x1f,%eax
  1001d2:	89 45 e4             	mov    %eax,-0x1c(%ebp)
  1001d5:	75 15                	jne    1001ec <__udivdi3+0x75>
  1001d7:	39 fa                	cmp    %edi,%edx
  1001d9:	b9 00 00 00 00       	mov    $0x0,%ecx
  1001de:	72 05                	jb     1001e5 <__udivdi3+0x6e>
  1001e0:	39 75 e0             	cmp    %esi,-0x20(%ebp)
  1001e3:	72 72                	jb     100257 <__udivdi3+0xe0>
  1001e5:	bb 01 00 00 00       	mov    $0x1,%ebx
  1001ea:	eb 71                	jmp    10025d <__udivdi3+0xe6>
  1001ec:	8b 5d e4             	mov    -0x1c(%ebp),%ebx
  1001ef:	b8 20 00 00 00       	mov    $0x20,%eax
  1001f4:	29 d8                	sub    %ebx,%eax
  1001f6:	8a 4d e4             	mov    -0x1c(%ebp),%cl
  1001f9:	d3 e2                	shl    %cl,%edx
  1001fb:	89 f3                	mov    %esi,%ebx
  1001fd:	88 c1                	mov    %al,%cl
  1001ff:	d3 eb                	shr    %cl,%ebx
  100201:	89 d9                	mov    %ebx,%ecx
  100203:	8b 5d e0             	mov    -0x20(%ebp),%ebx
  100206:	09 d1                	or     %edx,%ecx
  100208:	89 4d dc             	mov    %ecx,-0x24(%ebp)
  10020b:	8a 4d e4             	mov    -0x1c(%ebp),%cl
  10020e:	d3 e6                	shl    %cl,%esi
  100210:	89 75 d8             	mov    %esi,-0x28(%ebp)
  100213:	88 c1                	mov    %al,%cl
  100215:	89 fe                	mov    %edi,%esi
  100217:	d3 ee                	shr    %cl,%esi
  100219:	8a 4d e4             	mov    -0x1c(%ebp),%cl
  10021c:	89 f2                	mov    %esi,%edx
  10021e:	d3 e7                	shl    %cl,%edi
  100220:	88 c1                	mov    %al,%cl
  100222:	d3 eb                	shr    %cl,%ebx
  100224:	09 fb                	or     %edi,%ebx
  100226:	89 d8                	mov    %ebx,%eax
  100228:	f7 75 dc             	divl   -0x24(%ebp)
  10022b:	89 d6                	mov    %edx,%esi
  10022d:	89 c7                	mov    %eax,%edi
  10022f:	89 c3                	mov    %eax,%ebx
  100231:	f7 65 d8             	mull   -0x28(%ebp)
  100234:	89 45 dc             	mov    %eax,-0x24(%ebp)
  100237:	39 d6                	cmp    %edx,%esi
  100239:	72 15                	jb     100250 <__udivdi3+0xd9>
  10023b:	8a 4d e4             	mov    -0x1c(%ebp),%cl
  10023e:	8b 45 e0             	mov    -0x20(%ebp),%eax
  100241:	d3 e0                	shl    %cl,%eax
  100243:	89 c1                	mov    %eax,%ecx
  100245:	8b 45 dc             	mov    -0x24(%ebp),%eax
  100248:	39 c1                	cmp    %eax,%ecx
  10024a:	73 0f                	jae    10025b <__udivdi3+0xe4>
  10024c:	39 d6                	cmp    %edx,%esi
  10024e:	75 0b                	jne    10025b <__udivdi3+0xe4>
  100250:	8d 5f ff             	lea    -0x1(%edi),%ebx
  100253:	eb 06                	jmp    10025b <__udivdi3+0xe4>
  100255:	31 c9                	xor    %ecx,%ecx
  100257:	31 db                	xor    %ebx,%ebx
  100259:	eb 02                	jmp    10025d <__udivdi3+0xe6>
  10025b:	31 c9                	xor    %ecx,%ecx
  10025d:	89 d8                	mov    %ebx,%eax
  10025f:	89 ca                	mov    %ecx,%edx
  100261:	83 c4 1c             	add    $0x1c,%esp
  100264:	5b                   	pop    %ebx
  100265:	5e                   	pop    %esi
  100266:	5f                   	pop    %edi
  100267:	5d                   	pop    %ebp
  100268:	c3                   	ret

00100269 <strlen>:
  100269:	55                   	push   %ebp
  10026a:	89 e5                	mov    %esp,%ebp
  10026c:	57                   	push   %edi
  10026d:	8b 55 08             	mov    0x8(%ebp),%edx
  100270:	fc                   	cld
  100271:	89 d7                	mov    %edx,%edi
  100273:	b9 ff ff ff ff       	mov    $0xffffffff,%ecx
  100278:	31 c0                	xor    %eax,%eax
  10027a:	f2 ae                	repnz scas %es:(%edi),%al

0010027c <L15>:
  10027c:	29 d7                	sub    %edx,%edi
  10027e:	8d 47 ff             	lea    -0x1(%edi),%eax
  100281:	8d 65 fc             	lea    -0x4(%ebp),%esp
  100284:	5f                   	pop    %edi
  100285:	c9                   	leave
  100286:	c3                   	ret
	...

00100290 <strcmp>:
  100290:	55                   	push   %ebp
  100291:	89 e5                	mov    %esp,%ebp
  100293:	53                   	push   %ebx
  100294:	8b 4d 08             	mov    0x8(%ebp),%ecx
  100297:	8b 55 0c             	mov    0xc(%ebp),%edx
  10029a:	89 c8                	mov    %ecx,%eax
  10029c:	09 d0                	or     %edx,%eax
  10029e:	a8 03                	test   $0x3,%al
  1002a0:	75 2c                	jne    1002ce <strcmp+0x3e>
  1002a2:	eb 1c                	jmp    1002c0 <strcmp+0x30>
  1002a4:	8d 74 26 00          	lea    0x0(%esi,%eiz,1),%esi
  1002a8:	8d 98 ff fe fe fe    	lea    -0x1010101(%eax),%ebx
  1002ae:	83 f0 ff             	xor    $0xffffffff,%eax
  1002b1:	21 d8                	and    %ebx,%eax
  1002b3:	a9 80 80 80 80       	test   $0x80808080,%eax
  1002b8:	75 36                	jne    1002f0 <strcmp+0x60>
  1002ba:	83 c1 04             	add    $0x4,%ecx
  1002bd:	83 c2 04             	add    $0x4,%edx
  1002c0:	8b 01                	mov    (%ecx),%eax
  1002c2:	3b 02                	cmp    (%edx),%eax
  1002c4:	74 e2                	je     1002a8 <strcmp+0x18>
  1002c6:	eb 06                	jmp    1002ce <strcmp+0x3e>
  1002c8:	38 02                	cmp    %al,(%edx)
  1002ca:	75 1c                	jne    1002e8 <strcmp+0x58>
  1002cc:	41                   	inc    %ecx
  1002cd:	42                   	inc    %edx
  1002ce:	8a 01                	mov    (%ecx),%al
  1002d0:	84 c0                	test   %al,%al
  1002d2:	75 f4                	jne    1002c8 <strcmp+0x38>
  1002d4:	31 c0                	xor    %eax,%eax
  1002d6:	31 db                	xor    %ebx,%ebx
  1002d8:	8a 1a                	mov    (%edx),%bl
  1002da:	89 da                	mov    %ebx,%edx
  1002dc:	5b                   	pop    %ebx
  1002dd:	29 d0                	sub    %edx,%eax
  1002df:	5d                   	pop    %ebp
  1002e0:	c3                   	ret
  1002e1:	8d b4 26 00 00 00 00 	lea    0x0(%esi,%eiz,1),%esi
  1002e8:	25 ff 00 00 00       	and    $0xff,%eax
  1002ed:	eb e7                	jmp    1002d6 <strcmp+0x46>
  1002ef:	90                   	nop
  1002f0:	5b                   	pop    %ebx
  1002f1:	31 c0                	xor    %eax,%eax
  1002f3:	5d                   	pop    %ebp
  1002f4:	c3                   	ret

001002f5 <_OffsetAbsSyms>:
  1002f5:	c3                   	ret

001002f6 <k_sem_count_get>:
  1002f6:	8c ca                	mov    %cs,%edx
  1002f8:	83 fa 2b             	cmp    $0x2b,%edx
  1002fb:	75 0e                	jne    10030b <k_sem_count_get+0x15>
  1002fd:	55                   	push   %ebp
  1002fe:	89 e5                	mov    %esp,%ebp
  100300:	56                   	push   %esi
  100301:	be 3a 00 00 00       	mov    $0x3a,%esi
  100306:	cd 80                	int    $0x80
  100308:	5e                   	pop    %esi
  100309:	5d                   	pop    %ebp
  10030a:	c3                   	ret
  10030b:	8b 40 10             	mov    0x10(%eax),%eax
  10030e:	c3                   	ret

0010030f <k_sem_give>:
  10030f:	55                   	push   %ebp
  100310:	89 e5                	mov    %esp,%ebp
  100312:	56                   	push   %esi
  100313:	8c ca                	mov    %cs,%edx
  100315:	83 fa 2b             	cmp    $0x2b,%edx
  100318:	75 09                	jne    100323 <k_sem_give+0x14>
  10031a:	be 3b 00 00 00       	mov    $0x3b,%esi
  10031f:	cd 80                	int    $0x80
  100321:	eb 07                	jmp    10032a <k_sem_give+0x1b>
  100323:	50                   	push   %eax
  100324:	e8 2f 77 00 00       	call   107a58 <z_impl_k_sem_give>
  100329:	58                   	pop    %eax
  10032a:	8b 75 fc             	mov    -0x4(%ebp),%esi
  10032d:	c9                   	leave
  10032e:	c3                   	ret

0010032f <sem_thread_give>:
  10032f:	b8 74 cc 12 00       	mov    $0x12cc74,%eax
  100334:	c7 05 04 90 11 00 01 	movl   $0x1,0x119004
  10033b:	00 00 00 
  10033e:	e9 cc ff ff ff       	jmp    10030f <k_sem_give>

00100343 <k_object_access_grant>:
  100343:	55                   	push   %ebp
  100344:	89 e5                	mov    %esp,%ebp
  100346:	56                   	push   %esi
  100347:	8c c9                	mov    %cs,%ecx
  100349:	83 f9 2b             	cmp    $0x2b,%ecx
  10034c:	75 09                	jne    100357 <k_object_access_grant+0x14>
  10034e:	be 21 00 00 00       	mov    $0x21,%esi
  100353:	cd 80                	int    $0x80
  100355:	eb 09                	jmp    100360 <k_object_access_grant+0x1d>
  100357:	52                   	push   %edx
  100358:	50                   	push   %eax
  100359:	e8 8f d5 00 00       	call   10d8ed <z_impl_k_object_access_grant>
  10035e:	58                   	pop    %eax
  10035f:	5a                   	pop    %edx
  100360:	8b 75 fc             	mov    -0x4(%ebp),%esi
  100363:	c9                   	leave
  100364:	c3                   	ret

00100365 <test_init>:
  100365:	55                   	push   %ebp
  100366:	b8 74 cc 12 00       	mov    $0x12cc74,%eax
  10036b:	89 e5                	mov    %esp,%ebp
  10036d:	53                   	push   %ebx
  10036e:	65 8b 1d 00 00 00 00 	mov    %gs:0x0,%ebx
  100375:	8b 93 fc ff ff ff    	mov    -0x4(%ebx),%edx
  10037b:	e8 c3 ff ff ff       	call   100343 <k_object_access_grant>
  100380:	8b 93 fc ff ff ff    	mov    -0x4(%ebx),%edx
  100386:	b8 5c cc 12 00       	mov    $0x12cc5c,%eax
  10038b:	e8 b3 ff ff ff       	call   100343 <k_object_access_grant>
  100390:	8b 93 fc ff ff ff    	mov    -0x4(%ebx),%edx
  100396:	b8 44 cc 12 00       	mov    $0x12cc44,%eax
  10039b:	e8 a3 ff ff ff       	call   100343 <k_object_access_grant>
  1003a0:	8b 93 fc ff ff ff    	mov    -0x4(%ebx),%edx
  1003a6:	b8 20 43 12 00       	mov    $0x124320,%eax
  1003ab:	e8 93 ff ff ff       	call   100343 <k_object_access_grant>
  1003b0:	8b 93 fc ff ff ff    	mov    -0x4(%ebx),%edx
  1003b6:	b8 c0 43 12 00       	mov    $0x1243c0,%eax
  1003bb:	e8 83 ff ff ff       	call   100343 <k_object_access_grant>
  1003c0:	8b 93 fc ff ff ff    	mov    -0x4(%ebx),%edx
  1003c6:	b8 60 44 12 00       	mov    $0x124460,%eax
  1003cb:	e8 73 ff ff ff       	call   100343 <k_object_access_grant>
  1003d0:	8b 93 fc ff ff ff    	mov    -0x4(%ebx),%edx
  1003d6:	b8 00 45 12 00       	mov    $0x124500,%eax
  1003db:	e8 63 ff ff ff       	call   100343 <k_object_access_grant>
  1003e0:	8b 93 fc ff ff ff    	mov    -0x4(%ebx),%edx
  1003e6:	b8 a0 45 12 00       	mov    $0x1245a0,%eax
  1003eb:	e8 53 ff ff ff       	call   100343 <k_object_access_grant>
  1003f0:	8b 93 fc ff ff ff    	mov    -0x4(%ebx),%edx
  1003f6:	b8 80 42 12 00       	mov    $0x124280,%eax
  1003fb:	e8 43 ff ff ff       	call   100343 <k_object_access_grant>
  100400:	8b 93 fc ff ff ff    	mov    -0x4(%ebx),%edx
  100406:	b8 40 41 12 00       	mov    $0x124140,%eax
  10040b:	e8 33 ff ff ff       	call   100343 <k_object_access_grant>
  100410:	8b 93 fc ff ff ff    	mov    -0x4(%ebx),%edx
  100416:	b8 e0 41 12 00       	mov    $0x1241e0,%eax
  10041b:	e8 23 ff ff ff       	call   100343 <k_object_access_grant>
  100420:	8b 93 fc ff ff ff    	mov    -0x4(%ebx),%edx
  100426:	b8 00 40 12 00       	mov    $0x124000,%eax
  10042b:	e8 13 ff ff ff       	call   100343 <k_object_access_grant>
  100430:	8b 93 fc ff ff ff    	mov    -0x4(%ebx),%edx
  100436:	b8 a0 40 12 00       	mov    $0x1240a0,%eax
  10043b:	e8 03 ff ff ff       	call   100343 <k_object_access_grant>
  100440:	8b 93 fc ff ff ff    	mov    -0x4(%ebx),%edx
  100446:	b8 40 46 12 00       	mov    $0x124640,%eax
  10044b:	e8 f3 fe ff ff       	call   100343 <k_object_access_grant>
  100450:	8b 93 fc ff ff ff    	mov    -0x4(%ebx),%edx
  100456:	b8 20 43 12 00       	mov    $0x124320,%eax
  10045b:	e8 e3 fe ff ff       	call   100343 <k_object_access_grant>
  100460:	8b 93 fc ff ff ff    	mov    -0x4(%ebx),%edx
  100466:	b8 00 10 14 00       	mov    $0x141000,%eax
  10046b:	e8 d3 fe ff ff       	call   100343 <k_object_access_grant>
  100470:	8b 93 fc ff ff ff    	mov    -0x4(%ebx),%edx
  100476:	b8 00 30 14 00       	mov    $0x143000,%eax
  10047b:	e8 c3 fe ff ff       	call   100343 <k_object_access_grant>
  100480:	8b 93 fc ff ff ff    	mov    -0x4(%ebx),%edx
  100486:	b8 00 70 14 00       	mov    $0x147000,%eax
  10048b:	e8 b3 fe ff ff       	call   100343 <k_object_access_grant>
  100490:	8b 93 fc ff ff ff    	mov    -0x4(%ebx),%edx
  100496:	b8 00 90 14 00       	mov    $0x149000,%eax
  10049b:	e8 a3 fe ff ff       	call   100343 <k_object_access_grant>
  1004a0:	8b 93 fc ff ff ff    	mov    -0x4(%ebx),%edx
  1004a6:	b8 00 50 14 00       	mov    $0x145000,%eax
  1004ab:	e8 93 fe ff ff       	call   100343 <k_object_access_grant>
  1004b0:	8b 93 fc ff ff ff    	mov    -0x4(%ebx),%edx
  1004b6:	b8 00 b0 14 00       	mov    $0x14b000,%eax
  1004bb:	e8 83 fe ff ff       	call   100343 <k_object_access_grant>
  1004c0:	8b 93 fc ff ff ff    	mov    -0x4(%ebx),%edx
  1004c6:	b8 00 d0 14 00       	mov    $0x14d000,%eax
  1004cb:	e8 73 fe ff ff       	call   100343 <k_object_access_grant>
  1004d0:	8b 93 fc ff ff ff    	mov    -0x4(%ebx),%edx
  1004d6:	b8 00 f0 14 00       	mov    $0x14f000,%eax
  1004db:	e8 63 fe ff ff       	call   100343 <k_object_access_grant>
  1004e0:	8b 93 fc ff ff ff    	mov    -0x4(%ebx),%edx
  1004e6:	b8 00 10 15 00       	mov    $0x151000,%eax
  1004eb:	e8 53 fe ff ff       	call   100343 <k_object_access_grant>
  1004f0:	8b 93 fc ff ff ff    	mov    -0x4(%ebx),%edx
  1004f6:	b8 00 30 15 00       	mov    $0x153000,%eax
  1004fb:	e8 43 fe ff ff       	call   100343 <k_object_access_grant>
  100500:	5b                   	pop    %ebx
  100501:	31 c0                	xor    %eax,%eax
  100503:	5d                   	pop    %ebp
  100504:	c3                   	ret

00100505 <sem_thread_give_uninit>:
  100505:	55                   	push   %ebp
  100506:	89 e5                	mov    %esp,%ebp
  100508:	56                   	push   %esi
  100509:	8c c8                	mov    %cs,%eax
  10050b:	83 f8 2b             	cmp    $0x2b,%eax
  10050e:	75 0e                	jne    10051e <sem_thread_give_uninit+0x19>
  100510:	be 89 00 00 00       	mov    $0x89,%esi
  100515:	b8 01 00 00 00       	mov    $0x1,%eax
  10051a:	cd 80                	int    $0x80
  10051c:	eb 08                	jmp    100526 <sem_thread_give_uninit+0x21>
  10051e:	6a 01                	push   $0x1
  100520:	e8 8e 4a 00 00       	call   104fb3 <z_impl_ztest_set_fault_valid>
  100525:	58                   	pop    %eax
  100526:	b8 2c cc 12 00       	mov    $0x12cc2c,%eax
  10052b:	e8 df fd ff ff       	call   10030f <k_sem_give>
  100530:	8b 75 fc             	mov    -0x4(%ebp),%esi
  100533:	c9                   	leave
  100534:	e9 a5 41 00 00       	jmp    1046de <ztest_test_fail>

00100539 <z_zassert.constprop.0>:
  100539:	55                   	push   %ebp
  10053a:	89 e5                	mov    %esp,%ebp
  10053c:	56                   	push   %esi
  10053d:	53                   	push   %ebx
  10053e:	8b 45 08             	mov    0x8(%ebp),%eax
  100541:	88 c3                	mov    %al,%bl
  100543:	84 c0                	test   %al,%al
  100545:	75 40                	jne    100587 <z_zassert.constprop.0+0x4e>
  100547:	68 60 0e 11 00       	push   $0x110e60
  10054c:	e8 b1 4b 00 00       	call   105102 <ztest_relative_filename>
  100551:	5a                   	pop    %edx
  100552:	8d 75 20             	lea    0x20(%ebp),%esi
  100555:	ff 75 0c             	push   0xc(%ebp)
  100558:	ff 75 18             	push   0x18(%ebp)
  10055b:	ff 75 14             	push   0x14(%ebp)
  10055e:	50                   	push   %eax
  10055f:	68 9d 0e 11 00       	push   $0x110e9d
  100564:	e8 ff 0f 00 00       	call   101568 <printk>
  100569:	83 c4 14             	add    $0x14,%esp
  10056c:	56                   	push   %esi
  10056d:	ff 75 1c             	push   0x1c(%ebp)
  100570:	e8 d4 0e 00 00       	call   101449 <vprintk>
  100575:	59                   	pop    %ecx
  100576:	5e                   	pop    %esi
  100577:	68 4b 23 11 00       	push   $0x11234b
  10057c:	e8 e7 0f 00 00       	call   101568 <printk>
  100581:	58                   	pop    %eax
  100582:	e8 57 41 00 00       	call   1046de <ztest_test_fail>
  100587:	8d 65 f8             	lea    -0x8(%ebp),%esp
  10058a:	88 d8                	mov    %bl,%al
  10058c:	5b                   	pop    %ebx
  10058d:	5e                   	pop    %esi
  10058e:	5d                   	pop    %ebp
  10058f:	c3                   	ret

00100590 <k_thread_create.constprop.0.isra.0>:
  100590:	55                   	push   %ebp
  100591:	89 e5                	mov    %esp,%ebp
  100593:	57                   	push   %edi
  100594:	56                   	push   %esi
  100595:	53                   	push   %ebx
  100596:	89 cb                	mov    %ecx,%ebx
  100598:	83 ec 1c             	sub    $0x1c,%esp
  10059b:	8b 4d 08             	mov    0x8(%ebp),%ecx
  10059e:	8c ce                	mov    %cs,%esi
  1005a0:	83 fe 2b             	cmp    $0x2b,%esi
  1005a3:	75 39                	jne    1005de <k_thread_create.constprop.0.isra.0+0x4e>
  1005a5:	31 ff                	xor    %edi,%edi
  1005a7:	8b 75 10             	mov    0x10(%ebp),%esi
  1005aa:	89 7d dc             	mov    %edi,-0x24(%ebp)
  1005ad:	89 7d e0             	mov    %edi,-0x20(%ebp)
  1005b0:	89 4d e4             	mov    %ecx,-0x1c(%ebp)
  1005b3:	8b 7d 0c             	mov    0xc(%ebp),%edi
  1005b6:	8d 4d dc             	lea    -0x24(%ebp),%ecx
  1005b9:	89 7d ec             	mov    %edi,-0x14(%ebp)
  1005bc:	89 75 f0             	mov    %esi,-0x10(%ebp)
  1005bf:	89 4d d8             	mov    %ecx,-0x28(%ebp)
  1005c2:	c7 45 e8 0c 00 00 00 	movl   $0xc,-0x18(%ebp)
  1005c9:	be 45 00 00 00       	mov    $0x45,%esi
  1005ce:	b9 00 02 00 00       	mov    $0x200,%ecx
  1005d3:	31 ff                	xor    %edi,%edi
  1005d5:	55                   	push   %ebp
  1005d6:	8b 6d d8             	mov    -0x28(%ebp),%ebp
  1005d9:	cd 80                	int    $0x80
  1005db:	5d                   	pop    %ebp
  1005dc:	eb 1f                	jmp    1005fd <k_thread_create.constprop.0.isra.0+0x6d>
  1005de:	ff 75 10             	push   0x10(%ebp)
  1005e1:	ff 75 0c             	push   0xc(%ebp)
  1005e4:	6a 0c                	push   $0xc
  1005e6:	51                   	push   %ecx
  1005e7:	6a 00                	push   $0x0
  1005e9:	6a 00                	push   $0x0
  1005eb:	6a 00                	push   $0x0
  1005ed:	53                   	push   %ebx
  1005ee:	68 00 02 00 00       	push   $0x200
  1005f3:	52                   	push   %edx
  1005f4:	50                   	push   %eax
  1005f5:	e8 41 82 00 00       	call   10883b <z_impl_k_thread_create>
  1005fa:	83 c4 2c             	add    $0x2c,%esp
  1005fd:	8d 65 f4             	lea    -0xc(%ebp),%esp
  100600:	5b                   	pop    %ebx
  100601:	5e                   	pop    %esi
  100602:	5f                   	pop    %edi
  100603:	5d                   	pop    %ebp
  100604:	c3                   	ret

00100605 <k_thread_join.constprop.0.isra.0>:
  100605:	55                   	push   %ebp
  100606:	89 e5                	mov    %esp,%ebp
  100608:	56                   	push   %esi
  100609:	53                   	push   %ebx
  10060a:	89 cb                	mov    %ecx,%ebx
  10060c:	89 d1                	mov    %edx,%ecx
  10060e:	8c ca                	mov    %cs,%edx
  100610:	83 fa 2b             	cmp    $0x2b,%edx
  100613:	75 0d                	jne    100622 <k_thread_join.constprop.0.isra.0+0x1d>
  100615:	89 ca                	mov    %ecx,%edx
  100617:	be 49 00 00 00       	mov    $0x49,%esi
  10061c:	89 d9                	mov    %ebx,%ecx
  10061e:	cd 80                	int    $0x80
  100620:	eb 0b                	jmp    10062d <k_thread_join.constprop.0.isra.0+0x28>
  100622:	53                   	push   %ebx
  100623:	51                   	push   %ecx
  100624:	50                   	push   %eax
  100625:	e8 70 a2 00 00       	call   10a89a <z_impl_k_thread_join>
  10062a:	83 c4 0c             	add    $0xc,%esp
  10062d:	8d 65 f8             	lea    -0x8(%ebp),%esp
  100630:	5b                   	pop    %ebx
  100631:	5e                   	pop    %esi
  100632:	5d                   	pop    %ebp
  100633:	c3                   	ret

00100634 <k_sem_init.constprop.0.isra.0>:
  100634:	55                   	push   %ebp
  100635:	89 e5                	mov    %esp,%ebp
  100637:	56                   	push   %esi
  100638:	8c ca                	mov    %cs,%edx
  10063a:	83 fa 2b             	cmp    $0x2b,%edx
  10063d:	75 10                	jne    10064f <k_sem_init.constprop.0.isra.0+0x1b>
  10063f:	be 3c 00 00 00       	mov    $0x3c,%esi
  100644:	31 d2                	xor    %edx,%edx
  100646:	b9 03 00 00 00       	mov    $0x3,%ecx
  10064b:	cd 80                	int    $0x80
  10064d:	eb 0d                	jmp    10065c <k_sem_init.constprop.0.isra.0+0x28>
  10064f:	6a 03                	push   $0x3
  100651:	6a 00                	push   $0x0
  100653:	50                   	push   %eax
  100654:	e8 2c 73 00 00       	call   107985 <z_impl_k_sem_init>
  100659:	83 c4 0c             	add    $0xc,%esp
  10065c:	8b 75 fc             	mov    -0x4(%ebp),%esi
  10065f:	c9                   	leave
  100660:	c3                   	ret

00100661 <k_sem_take.constprop.0.isra.0>:
  100661:	55                   	push   %ebp
  100662:	89 e5                	mov    %esp,%ebp
  100664:	56                   	push   %esi
  100665:	53                   	push   %ebx
  100666:	89 cb                	mov    %ecx,%ebx
  100668:	89 d1                	mov    %edx,%ecx
  10066a:	8c ca                	mov    %cs,%edx
  10066c:	83 fa 2b             	cmp    $0x2b,%edx
  10066f:	75 0d                	jne    10067e <k_sem_take.constprop.0.isra.0+0x1d>
  100671:	89 ca                	mov    %ecx,%edx
  100673:	be 3e 00 00 00       	mov    $0x3e,%esi
  100678:	89 d9                	mov    %ebx,%ecx
  10067a:	cd 80                	int    $0x80
  10067c:	eb 0b                	jmp    100689 <k_sem_take.constprop.0.isra.0+0x28>
  10067e:	53                   	push   %ebx
  10067f:	51                   	push   %ecx
  100680:	50                   	push   %eax
  100681:	e8 2b 75 00 00       	call   107bb1 <z_impl_k_sem_take>
  100686:	83 c4 0c             	add    $0xc,%esp
  100689:	8d 65 f8             	lea    -0x8(%ebp),%esp
  10068c:	5b                   	pop    %ebx
  10068d:	5e                   	pop    %esi
  10068e:	5d                   	pop    %ebp
  10068f:	c3                   	ret

00100690 <thread_high_prio_sem_take>:
  100690:	55                   	push   %ebp
  100691:	83 ca ff             	or     $0xffffffff,%edx
  100694:	89 e5                	mov    %esp,%ebp
  100696:	b8 74 cc 12 00       	mov    $0x12cc74,%eax
  10069b:	89 d1                	mov    %edx,%ecx
  10069d:	e8 bf ff ff ff       	call   100661 <k_sem_take.constprop.0.isra.0>
  1006a2:	b8 5c cc 12 00       	mov    $0x12cc5c,%eax
  1006a7:	c7 05 04 90 11 00 02 	movl   $0x2,0x119004
  1006ae:	00 00 00 
  1006b1:	5d                   	pop    %ebp
  1006b2:	e9 58 fc ff ff       	jmp    10030f <k_sem_give>

001006b7 <thread_low_prio_sem_take>:
  1006b7:	55                   	push   %ebp
  1006b8:	83 ca ff             	or     $0xffffffff,%edx
  1006bb:	89 e5                	mov    %esp,%ebp
  1006bd:	b8 74 cc 12 00       	mov    $0x12cc74,%eax
  1006c2:	89 d1                	mov    %edx,%ecx
  1006c4:	e8 98 ff ff ff       	call   100661 <k_sem_take.constprop.0.isra.0>
  1006c9:	b8 5c cc 12 00       	mov    $0x12cc5c,%eax
  1006ce:	c7 05 04 90 11 00 08 	movl   $0x8,0x119004
  1006d5:	00 00 00 
  1006d8:	5d                   	pop    %ebp
  1006d9:	e9 31 fc ff ff       	jmp    10030f <k_sem_give>

001006de <multi_thread_sem_give>:
  1006de:	55                   	push   %ebp
  1006df:	89 e5                	mov    %esp,%ebp
  1006e1:	53                   	push   %ebx
  1006e2:	f0 ff 05 00 90 11 00 	lock incl 0x119000
  1006e9:	b8 44 cc 12 00       	mov    $0x12cc44,%eax
  1006ee:	8b 1d 00 90 11 00    	mov    0x119000,%ebx
  1006f4:	e8 16 fc ff ff       	call   10030f <k_sem_give>
  1006f9:	b8 44 cc 12 00       	mov    $0x12cc44,%eax
  1006fe:	83 fb 03             	cmp    $0x3,%ebx
  100701:	77 22                	ja     100725 <multi_thread_sem_give+0x47>
  100703:	e8 ee fb ff ff       	call   1002f6 <k_sem_count_get>
  100708:	68 c5 0e 11 00       	push   $0x110ec5
  10070d:	68 d0 06 11 00       	push   $0x1106d0
  100712:	39 d8                	cmp    %ebx,%eax
  100714:	68 89 00 00 00       	push   $0x89
  100719:	68 60 0e 11 00       	push   $0x110e60
  10071e:	68 d9 0e 11 00       	push   $0x110ed9
  100723:	eb 21                	jmp    100746 <multi_thread_sem_give+0x68>
  100725:	e8 cc fb ff ff       	call   1002f6 <k_sem_count_get>
  10072a:	68 0a 0f 11 00       	push   $0x110f0a
  10072f:	68 d0 06 11 00       	push   $0x1106d0
  100734:	83 f8 03             	cmp    $0x3,%eax
  100737:	68 8b 00 00 00       	push   $0x8b
  10073c:	68 60 0e 11 00       	push   $0x110e60
  100741:	68 1e 0f 11 00       	push   $0x110f1e
  100746:	0f 94 c0             	sete   %al
  100749:	0f b6 c0             	movzbl %al,%eax
  10074c:	50                   	push   %eax
  10074d:	e8 e7 fd ff ff       	call   100539 <z_zassert.constprop.0>
  100752:	83 ca ff             	or     $0xffffffff,%edx
  100755:	83 c4 18             	add    $0x18,%esp
  100758:	8b 5d fc             	mov    -0x4(%ebp),%ebx
  10075b:	89 d1                	mov    %edx,%ecx
  10075d:	b8 5c cc 12 00       	mov    $0x12cc5c,%eax
  100762:	c9                   	leave
  100763:	e9 f9 fe ff ff       	jmp    100661 <k_sem_take.constprop.0.isra.0>

00100768 <k_sleep.isra.0>:
  100768:	55                   	push   %ebp
  100769:	89 e5                	mov    %esp,%ebp
  10076b:	56                   	push   %esi
  10076c:	8c c9                	mov    %cs,%ecx
  10076e:	83 f9 2b             	cmp    $0x2b,%ecx
  100771:	75 09                	jne    10077c <k_sleep.isra.0+0x14>
  100773:	be 3f 00 00 00       	mov    $0x3f,%esi
  100778:	cd 80                	int    $0x80
  10077a:	eb 09                	jmp    100785 <k_sleep.isra.0+0x1d>
  10077c:	52                   	push   %edx
  10077d:	50                   	push   %eax
  10077e:	e8 3d 9d 00 00       	call   10a4c0 <z_impl_k_sleep>
  100783:	58                   	pop    %eax
  100784:	5a                   	pop    %edx
  100785:	8b 75 fc             	mov    -0x4(%ebp),%esi
  100788:	c9                   	leave
  100789:	c3                   	ret

0010078a <multi_thread_sem_take>:
  10078a:	55                   	push   %ebp
  10078b:	83 ca ff             	or     $0xffffffff,%edx
  10078e:	89 e5                	mov    %esp,%ebp
  100790:	89 d1                	mov    %edx,%ecx
  100792:	b8 44 cc 12 00       	mov    $0x12cc44,%eax
  100797:	e8 c5 fe ff ff       	call   100661 <k_sem_take.constprop.0.isra.0>
  10079c:	f0 ff 0d 00 90 11 00 	lock decl 0x119000
  1007a3:	8b 0d 00 90 11 00    	mov    0x119000,%ecx
  1007a9:	b8 44 cc 12 00       	mov    $0x12cc44,%eax
  1007ae:	85 c9                	test   %ecx,%ecx
  1007b0:	78 22                	js     1007d4 <multi_thread_sem_take+0x4a>
  1007b2:	e8 3f fb ff ff       	call   1002f6 <k_sem_count_get>
  1007b7:	68 55 0f 11 00       	push   $0x110f55
  1007bc:	68 e8 06 11 00       	push   $0x1106e8
  1007c1:	39 c8                	cmp    %ecx,%eax
  1007c3:	68 9a 00 00 00       	push   $0x9a
  1007c8:	68 60 0e 11 00       	push   $0x110e60
  1007cd:	68 d9 0e 11 00       	push   $0x110ed9
  1007d2:	eb 20                	jmp    1007f4 <multi_thread_sem_take+0x6a>
  1007d4:	e8 1d fb ff ff       	call   1002f6 <k_sem_count_get>
  1007d9:	68 6a 0f 11 00       	push   $0x110f6a
  1007de:	68 e8 06 11 00       	push   $0x1106e8
  1007e3:	85 c0                	test   %eax,%eax
  1007e5:	68 9c 00 00 00       	push   $0x9c
  1007ea:	68 60 0e 11 00       	push   $0x110e60
  1007ef:	68 7f 0f 11 00       	push   $0x110f7f
  1007f4:	0f 94 c0             	sete   %al
  1007f7:	0f b6 c0             	movzbl %al,%eax
  1007fa:	50                   	push   %eax
  1007fb:	e8 39 fd ff ff       	call   100539 <z_zassert.constprop.0>
  100800:	83 c4 18             	add    $0x18,%esp
  100803:	b8 5c cc 12 00       	mov    $0x12cc5c,%eax
  100808:	c9                   	leave
  100809:	e9 01 fb ff ff       	jmp    10030f <k_sem_give>

0010080e <_kernel_sys_sem_test_multiple_thread_sem_usage_wrapper>:
  10080e:	55                   	push   %ebp
  10080f:	b8 74 cc 12 00       	mov    $0x12cc74,%eax
  100814:	89 e5                	mov    %esp,%ebp
  100816:	56                   	push   %esi
  100817:	e8 18 fe ff ff       	call   100634 <k_sem_init.constprop.0.isra.0>
  10081c:	b8 5c cc 12 00       	mov    $0x12cc5c,%eax
  100821:	e8 0e fe ff ff       	call   100634 <k_sem_init.constprop.0.isra.0>
  100826:	8c c8                	mov    %cs,%eax
  100828:	83 f8 2b             	cmp    $0x2b,%eax
  10082b:	75 0e                	jne    10083b <_kernel_sys_sem_test_multiple_thread_sem_usage_wrapper+0x2d>
  10082d:	be 3d 00 00 00       	mov    $0x3d,%esi
  100832:	b8 74 cc 12 00       	mov    $0x12cc74,%eax
  100837:	cd 80                	int    $0x80
  100839:	eb 0b                	jmp    100846 <_kernel_sys_sem_test_multiple_thread_sem_usage_wrapper+0x38>
  10083b:	68 74 cc 12 00       	push   $0x12cc74
  100840:	e8 b5 74 00 00       	call   107cfa <z_impl_k_sem_reset>
  100845:	5a                   	pop    %edx
  100846:	6a 00                	push   $0x0
  100848:	b9 2f 03 10 00       	mov    $0x10032f,%ecx
  10084d:	6a 00                	push   $0x0
  10084f:	ba 00 b0 14 00       	mov    $0x14b000,%edx
  100854:	6a 05                	push   $0x5
  100856:	b8 20 43 12 00       	mov    $0x124320,%eax
  10085b:	e8 30 fd ff ff       	call   100590 <k_thread_create.constprop.0.isra.0>
  100860:	83 c4 0c             	add    $0xc,%esp
  100863:	83 ca ff             	or     $0xffffffff,%edx
  100866:	b8 74 cc 12 00       	mov    $0x12cc74,%eax
  10086b:	89 d1                	mov    %edx,%ecx
  10086d:	e8 ef fd ff ff       	call   100661 <k_sem_take.constprop.0.isra.0>
  100872:	68 ac 0f 11 00       	push   $0x110fac
  100877:	68 40 01 11 00       	push   $0x110140
  10087c:	31 c0                	xor    %eax,%eax
  10087e:	6a 5a                	push   $0x5a
  100880:	68 60 0e 11 00       	push   $0x110e60
  100885:	68 b7 0f 11 00       	push   $0x110fb7
  10088a:	83 3d 04 90 11 00 01 	cmpl   $0x1,0x119004
  100891:	0f 94 c0             	sete   %al
  100894:	50                   	push   %eax
  100895:	e8 9f fc ff ff       	call   100539 <z_zassert.constprop.0>
  10089a:	83 c4 18             	add    $0x18,%esp
  10089d:	b8 74 cc 12 00       	mov    $0x12cc74,%eax
  1008a2:	e8 4f fa ff ff       	call   1002f6 <k_sem_count_get>
  1008a7:	68 cd 0f 11 00       	push   $0x110fcd
  1008ac:	85 c0                	test   %eax,%eax
  1008ae:	68 40 01 11 00       	push   $0x110140
  1008b3:	6a 5b                	push   $0x5b
  1008b5:	68 60 0e 11 00       	push   $0x110e60
  1008ba:	0f 94 c0             	sete   %al
  1008bd:	68 dd 0f 11 00       	push   $0x110fdd
  1008c2:	0f b6 c0             	movzbl %al,%eax
  1008c5:	50                   	push   %eax
  1008c6:	e8 6e fc ff ff       	call   100539 <z_zassert.constprop.0>
  1008cb:	83 c4 18             	add    $0x18,%esp
  1008ce:	8c c8                	mov    %cs,%eax
  1008d0:	83 f8 2b             	cmp    $0x2b,%eax
  1008d3:	75 0e                	jne    1008e3 <_kernel_sys_sem_test_multiple_thread_sem_usage_wrapper+0xd5>
  1008d5:	be 3d 00 00 00       	mov    $0x3d,%esi
  1008da:	b8 74 cc 12 00       	mov    $0x12cc74,%eax
  1008df:	cd 80                	int    $0x80
  1008e1:	eb 0b                	jmp    1008ee <_kernel_sys_sem_test_multiple_thread_sem_usage_wrapper+0xe0>
  1008e3:	68 74 cc 12 00       	push   $0x12cc74
  1008e8:	e8 0d 74 00 00       	call   107cfa <z_impl_k_sem_reset>
  1008ed:	58                   	pop    %eax
  1008ee:	6a 00                	push   $0x0
  1008f0:	b9 b7 06 10 00       	mov    $0x1006b7,%ecx
  1008f5:	6a 00                	push   $0x0
  1008f7:	ba 00 10 14 00       	mov    $0x141000,%edx
  1008fc:	6a 08                	push   $0x8
  1008fe:	b8 00 40 12 00       	mov    $0x124000,%eax
  100903:	e8 88 fc ff ff       	call   100590 <k_thread_create.constprop.0.isra.0>
  100908:	83 c4 0c             	add    $0xc,%esp
  10090b:	6a 00                	push   $0x0
  10090d:	b9 90 06 10 00       	mov    $0x100690,%ecx
  100912:	6a 00                	push   $0x0
  100914:	ba 00 30 14 00       	mov    $0x143000,%edx
  100919:	6a 02                	push   $0x2
  10091b:	b8 a0 40 12 00       	mov    $0x1240a0,%eax
  100920:	e8 6b fc ff ff       	call   100590 <k_thread_create.constprop.0.isra.0>
  100925:	83 c4 0c             	add    $0xc,%esp
  100928:	31 d2                	xor    %edx,%edx
  10092a:	b8 05 00 00 00       	mov    $0x5,%eax
  10092f:	e8 34 fe ff ff       	call   100768 <k_sleep.isra.0>
  100934:	b8 74 cc 12 00       	mov    $0x12cc74,%eax
  100939:	e8 d1 f9 ff ff       	call   10030f <k_sem_give>
  10093e:	83 ca ff             	or     $0xffffffff,%edx
  100941:	89 d1                	mov    %edx,%ecx
  100943:	b8 5c cc 12 00       	mov    $0x12cc5c,%eax
  100948:	e8 14 fd ff ff       	call   100661 <k_sem_take.constprop.0.isra.0>
  10094d:	68 0a 10 11 00       	push   $0x11100a
  100952:	68 40 01 11 00       	push   $0x110140
  100957:	31 c0                	xor    %eax,%eax
  100959:	6a 6e                	push   $0x6e
  10095b:	68 60 0e 11 00       	push   $0x110e60
  100960:	68 20 10 11 00       	push   $0x111020
  100965:	83 3d 04 90 11 00 02 	cmpl   $0x2,0x119004
  10096c:	0f 94 c0             	sete   %al
  10096f:	50                   	push   %eax
  100970:	e8 c4 fb ff ff       	call   100539 <z_zassert.constprop.0>
  100975:	83 c4 18             	add    $0x18,%esp
  100978:	b8 74 cc 12 00       	mov    $0x12cc74,%eax
  10097d:	e8 8d f9 ff ff       	call   10030f <k_sem_give>
  100982:	83 ca ff             	or     $0xffffffff,%edx
  100985:	89 d1                	mov    %edx,%ecx
  100987:	b8 5c cc 12 00       	mov    $0x12cc5c,%eax
  10098c:	e8 d0 fc ff ff       	call   100661 <k_sem_take.constprop.0.isra.0>
  100991:	68 3e 10 11 00       	push   $0x11103e
  100996:	68 40 01 11 00       	push   $0x110140
  10099b:	31 c0                	xor    %eax,%eax
  10099d:	6a 72                	push   $0x72
  10099f:	68 60 0e 11 00       	push   $0x110e60
  1009a4:	68 53 10 11 00       	push   $0x111053
  1009a9:	83 3d 04 90 11 00 08 	cmpl   $0x8,0x119004
  1009b0:	0f 94 c0             	sete   %al
  1009b3:	50                   	push   %eax
  1009b4:	e8 80 fb ff ff       	call   100539 <z_zassert.constprop.0>
  1009b9:	83 ca ff             	or     $0xffffffff,%edx
  1009bc:	83 c4 18             	add    $0x18,%esp
  1009bf:	89 d1                	mov    %edx,%ecx
  1009c1:	b8 20 43 12 00       	mov    $0x124320,%eax
  1009c6:	e8 3a fc ff ff       	call   100605 <k_thread_join.constprop.0.isra.0>
  1009cb:	83 ca ff             	or     $0xffffffff,%edx
  1009ce:	89 d1                	mov    %edx,%ecx
  1009d0:	b8 00 40 12 00       	mov    $0x124000,%eax
  1009d5:	e8 2b fc ff ff       	call   100605 <k_thread_join.constprop.0.isra.0>
  1009da:	83 ca ff             	or     $0xffffffff,%edx
  1009dd:	89 d1                	mov    %edx,%ecx
  1009df:	b8 a0 40 12 00       	mov    $0x1240a0,%eax
  1009e4:	e8 1c fc ff ff       	call   100605 <k_thread_join.constprop.0.isra.0>
  1009e9:	6a 00                	push   $0x0
  1009eb:	6a 00                	push   $0x0
  1009ed:	b9 05 05 10 00       	mov    $0x100505,%ecx
  1009f2:	6a 05                	push   $0x5
  1009f4:	ba 00 d0 14 00       	mov    $0x14d000,%edx
  1009f9:	b8 c0 43 12 00       	mov    $0x1243c0,%eax
  1009fe:	e8 8d fb ff ff       	call   100590 <k_thread_create.constprop.0.isra.0>
  100a03:	83 c4 0c             	add    $0xc,%esp
  100a06:	b8 02 00 00 00       	mov    $0x2,%eax
  100a0b:	31 d2                	xor    %edx,%edx
  100a0d:	e8 56 fd ff ff       	call   100768 <k_sleep.isra.0>
  100a12:	83 ca ff             	or     $0xffffffff,%edx
  100a15:	8b 75 fc             	mov    -0x4(%ebp),%esi
  100a18:	89 d1                	mov    %edx,%ecx
  100a1a:	b8 c0 43 12 00       	mov    $0x1243c0,%eax
  100a1f:	c9                   	leave
  100a20:	e9 e0 fb ff ff       	jmp    100605 <k_thread_join.constprop.0.isra.0>

00100a25 <_kernel_sys_sem_test_multi_thread_sem_limit_wrapper>:
  100a25:	55                   	push   %ebp
  100a26:	b8 44 cc 12 00       	mov    $0x12cc44,%eax
  100a2b:	89 e5                	mov    %esp,%ebp
  100a2d:	56                   	push   %esi
  100a2e:	53                   	push   %ebx
  100a2f:	e8 00 fc ff ff       	call   100634 <k_sem_init.constprop.0.isra.0>
  100a34:	b8 5c cc 12 00       	mov    $0x12cc5c,%eax
  100a39:	e8 f6 fb ff ff       	call   100634 <k_sem_init.constprop.0.isra.0>
  100a3e:	31 c0                	xor    %eax,%eax
  100a40:	87 05 00 90 11 00    	xchg   %eax,0x119000
  100a46:	bb 01 00 00 00       	mov    $0x1,%ebx
  100a4b:	69 c3 a0 00 00 00    	imul   $0xa0,%ebx,%eax
  100a51:	6a 00                	push   $0x0
  100a53:	89 da                	mov    %ebx,%edx
  100a55:	6a 00                	push   $0x0
  100a57:	05 20 43 12 00       	add    $0x124320,%eax
  100a5c:	c1 e2 0d             	shl    $0xd,%edx
  100a5f:	53                   	push   %ebx
  100a60:	81 c2 00 b0 14 00    	add    $0x14b000,%edx
  100a66:	b9 de 06 10 00       	mov    $0x1006de,%ecx
  100a6b:	43                   	inc    %ebx
  100a6c:	e8 1f fb ff ff       	call   100590 <k_thread_create.constprop.0.isra.0>
  100a71:	83 c4 0c             	add    $0xc,%esp
  100a74:	83 fb 05             	cmp    $0x5,%ebx
  100a77:	75 d2                	jne    100a4b <_kernel_sys_sem_test_multi_thread_sem_limit_wrapper+0x26>
  100a79:	b8 05 00 00 00       	mov    $0x5,%eax
  100a7e:	31 d2                	xor    %edx,%edx
  100a80:	e8 e3 fc ff ff       	call   100768 <k_sleep.isra.0>
  100a85:	b8 03 00 00 00       	mov    $0x3,%eax
  100a8a:	87 05 00 90 11 00    	xchg   %eax,0x119000
  100a90:	bb 01 00 00 00       	mov    $0x1,%ebx
  100a95:	69 c3 a0 00 00 00    	imul   $0xa0,%ebx,%eax
  100a9b:	6a 00                	push   $0x0
  100a9d:	89 da                	mov    %ebx,%edx
  100a9f:	6a 00                	push   $0x0
  100aa1:	05 00 40 12 00       	add    $0x124000,%eax
  100aa6:	c1 e2 0d             	shl    $0xd,%edx
  100aa9:	6a 05                	push   $0x5
  100aab:	81 c2 00 10 14 00    	add    $0x141000,%edx
  100ab1:	b9 8a 07 10 00       	mov    $0x10078a,%ecx
  100ab6:	43                   	inc    %ebx
  100ab7:	e8 d4 fa ff ff       	call   100590 <k_thread_create.constprop.0.isra.0>
  100abc:	83 c4 0c             	add    $0xc,%esp
  100abf:	83 fb 05             	cmp    $0x5,%ebx
  100ac2:	75 d1                	jne    100a95 <_kernel_sys_sem_test_multi_thread_sem_limit_wrapper+0x70>
  100ac4:	b8 05 00 00 00       	mov    $0x5,%eax
  100ac9:	31 d2                	xor    %edx,%edx
  100acb:	e8 98 fc ff ff       	call   100768 <k_sleep.isra.0>
  100ad0:	bb a0 00 00 00       	mov    $0xa0,%ebx
  100ad5:	8d 83 20 43 12 00    	lea    0x124320(%ebx),%eax
  100adb:	8c ca                	mov    %cs,%edx
  100add:	83 fa 2b             	cmp    $0x2b,%edx
  100ae0:	75 09                	jne    100aeb <_kernel_sys_sem_test_multi_thread_sem_limit_wrapper+0xc6>
  100ae2:	be 44 00 00 00       	mov    $0x44,%esi
  100ae7:	cd 80                	int    $0x80
  100ae9:	eb 07                	jmp    100af2 <_kernel_sys_sem_test_multi_thread_sem_limit_wrapper+0xcd>
  100aeb:	50                   	push   %eax
  100aec:	e8 63 9d 00 00       	call   10a854 <z_impl_k_thread_abort>
  100af1:	5a                   	pop    %edx
  100af2:	8d 83 00 40 12 00    	lea    0x124000(%ebx),%eax
  100af8:	8c ca                	mov    %cs,%edx
  100afa:	83 fa 2b             	cmp    $0x2b,%edx
  100afd:	75 09                	jne    100b08 <_kernel_sys_sem_test_multi_thread_sem_limit_wrapper+0xe3>
  100aff:	be 44 00 00 00       	mov    $0x44,%esi
  100b04:	cd 80                	int    $0x80
  100b06:	eb 07                	jmp    100b0f <_kernel_sys_sem_test_multi_thread_sem_limit_wrapper+0xea>
  100b08:	50                   	push   %eax
  100b09:	e8 46 9d 00 00       	call   10a854 <z_impl_k_thread_abort>
  100b0e:	58                   	pop    %eax
  100b0f:	81 c3 a0 00 00 00    	add    $0xa0,%ebx
  100b15:	81 fb 20 03 00 00    	cmp    $0x320,%ebx
  100b1b:	75 b8                	jne    100ad5 <_kernel_sys_sem_test_multi_thread_sem_limit_wrapper+0xb0>
  100b1d:	8d 65 f8             	lea    -0x8(%ebp),%esp
  100b20:	5b                   	pop    %ebx
  100b21:	5e                   	pop    %esi
  100b22:	5d                   	pop    %ebp
  100b23:	c3                   	ret

00100b24 <chunk_field>:
  100b24:	81 78 08 ff 7f 00 00 	cmpl   $0x7fff,0x8(%eax)
  100b2b:	8d 14 d0             	lea    (%eax,%edx,8),%edx
  100b2e:	76 04                	jbe    100b34 <chunk_field+0x10>
  100b30:	8b 04 8a             	mov    (%edx,%ecx,4),%eax
  100b33:	c3                   	ret
  100b34:	0f b7 04 4a          	movzwl (%edx,%ecx,2),%eax
  100b38:	c3                   	ret

00100b39 <chunk_set>:
  100b39:	55                   	push   %ebp
  100b3a:	8d 14 d0             	lea    (%eax,%edx,8),%edx
  100b3d:	89 e5                	mov    %esp,%ebp
  100b3f:	53                   	push   %ebx
  100b40:	81 78 08 ff 7f 00 00 	cmpl   $0x7fff,0x8(%eax)
  100b47:	8b 5d 08             	mov    0x8(%ebp),%ebx
  100b4a:	76 05                	jbe    100b51 <chunk_set+0x18>
  100b4c:	89 1c 8a             	mov    %ebx,(%edx,%ecx,4)
  100b4f:	eb 04                	jmp    100b55 <chunk_set+0x1c>
  100b51:	66 89 1c 4a          	mov    %bx,(%edx,%ecx,2)
  100b55:	5b                   	pop    %ebx
  100b56:	5d                   	pop    %ebp
  100b57:	c3                   	ret

00100b58 <chunk_size>:
  100b58:	55                   	push   %ebp
  100b59:	b9 01 00 00 00       	mov    $0x1,%ecx
  100b5e:	89 e5                	mov    %esp,%ebp
  100b60:	e8 bf ff ff ff       	call   100b24 <chunk_field>
  100b65:	5d                   	pop    %ebp
  100b66:	d1 e8                	shr    $1,%eax
  100b68:	c3                   	ret

00100b69 <set_chunk_used>:
  100b69:	55                   	push   %ebp
  100b6a:	89 e5                	mov    %esp,%ebp
  100b6c:	53                   	push   %ebx
  100b6d:	89 c3                	mov    %eax,%ebx
  100b6f:	8d 04 d0             	lea    (%eax,%edx,8),%eax
  100b72:	81 7b 08 ff 7f 00 00 	cmpl   $0x7fff,0x8(%ebx)
  100b79:	76 14                	jbe    100b8f <set_chunk_used+0x26>
  100b7b:	8b 50 04             	mov    0x4(%eax),%edx
  100b7e:	84 c9                	test   %cl,%cl
  100b80:	74 05                	je     100b87 <set_chunk_used+0x1e>
  100b82:	83 ca 01             	or     $0x1,%edx
  100b85:	eb 03                	jmp    100b8a <set_chunk_used+0x21>
  100b87:	83 e2 fe             	and    $0xfffffffe,%edx
  100b8a:	89 50 04             	mov    %edx,0x4(%eax)
  100b8d:	eb 14                	jmp    100ba3 <set_chunk_used+0x3a>
  100b8f:	66 8b 50 02          	mov    0x2(%eax),%dx
  100b93:	84 c9                	test   %cl,%cl
  100b95:	74 05                	je     100b9c <set_chunk_used+0x33>
  100b97:	83 ca 01             	or     $0x1,%edx
  100b9a:	eb 03                	jmp    100b9f <set_chunk_used+0x36>
  100b9c:	83 e2 fe             	and    $0xfffffffe,%edx
  100b9f:	66 89 50 02          	mov    %dx,0x2(%eax)
  100ba3:	5b                   	pop    %ebx
  100ba4:	5d                   	pop    %ebp
  100ba5:	c3                   	ret

00100ba6 <set_chunk_size>:
  100ba6:	55                   	push   %ebp
  100ba7:	01 c9                	add    %ecx,%ecx
  100ba9:	89 e5                	mov    %esp,%ebp
  100bab:	51                   	push   %ecx
  100bac:	b9 01 00 00 00       	mov    $0x1,%ecx
  100bb1:	e8 83 ff ff ff       	call   100b39 <chunk_set>
  100bb6:	58                   	pop    %eax
  100bb7:	c9                   	leave
  100bb8:	c3                   	ret

00100bb9 <mem_to_chunkid>:
  100bb9:	89 c1                	mov    %eax,%ecx
  100bbb:	89 d0                	mov    %edx,%eax
  100bbd:	81 79 08 00 80 00 00 	cmpl   $0x8000,0x8(%ecx)
  100bc4:	19 d2                	sbb    %edx,%edx
  100bc6:	83 e2 fc             	and    $0xfffffffc,%edx
  100bc9:	83 c2 08             	add    $0x8,%edx
  100bcc:	29 d0                	sub    %edx,%eax
  100bce:	29 c8                	sub    %ecx,%eax
  100bd0:	c1 e8 03             	shr    $0x3,%eax
  100bd3:	c3                   	ret

00100bd4 <bytes_to_chunksz.isra.0>:
  100bd4:	3d 00 80 00 00       	cmp    $0x8000,%eax
  100bd9:	19 c0                	sbb    %eax,%eax
  100bdb:	83 e0 fc             	and    $0xfffffffc,%eax
  100bde:	8d 44 10 0f          	lea    0xf(%eax,%edx,1),%eax
  100be2:	c1 e8 03             	shr    $0x3,%eax
  100be5:	c3                   	ret

00100be6 <bucket_idx.isra.0>:
  100be6:	55                   	push   %ebp
  100be7:	89 d1                	mov    %edx,%ecx
  100be9:	89 e5                	mov    %esp,%ebp
  100beb:	ba 01 00 00 00       	mov    $0x1,%edx
  100bf0:	e8 df ff ff ff       	call   100bd4 <bytes_to_chunksz.isra.0>
  100bf5:	41                   	inc    %ecx
  100bf6:	29 c1                	sub    %eax,%ecx
  100bf8:	5d                   	pop    %ebp
  100bf9:	0f bd c1             	bsr    %ecx,%eax
  100bfc:	c3                   	ret

00100bfd <free_list_remove_bidx>:
  100bfd:	55                   	push   %ebp
  100bfe:	89 e5                	mov    %esp,%ebp
  100c00:	57                   	push   %edi
  100c01:	56                   	push   %esi
  100c02:	53                   	push   %ebx
  100c03:	89 c3                	mov    %eax,%ebx
  100c05:	83 ec 08             	sub    $0x8,%esp
  100c08:	89 4d f0             	mov    %ecx,-0x10(%ebp)
  100c0b:	b9 03 00 00 00       	mov    $0x3,%ecx
  100c10:	89 55 ec             	mov    %edx,-0x14(%ebp)
  100c13:	e8 0c ff ff ff       	call   100b24 <chunk_field>
  100c18:	8b 55 ec             	mov    -0x14(%ebp),%edx
  100c1b:	89 c6                	mov    %eax,%esi
  100c1d:	39 c2                	cmp    %eax,%edx
  100c1f:	8b 45 f0             	mov    -0x10(%ebp),%eax
  100c22:	8d 78 04             	lea    0x4(%eax),%edi
  100c25:	75 14                	jne    100c3b <free_list_remove_bidx+0x3e>
  100c27:	b8 fe ff ff ff       	mov    $0xfffffffe,%eax
  100c2c:	8a 4d f0             	mov    -0x10(%ebp),%cl
  100c2f:	d3 c0                	rol    %cl,%eax
  100c31:	31 d2                	xor    %edx,%edx
  100c33:	21 43 0c             	and    %eax,0xc(%ebx)
  100c36:	89 14 bb             	mov    %edx,(%ebx,%edi,4)
  100c39:	eb 34                	jmp    100c6f <free_list_remove_bidx+0x72>
  100c3b:	b9 02 00 00 00       	mov    $0x2,%ecx
  100c40:	89 d8                	mov    %ebx,%eax
  100c42:	e8 dd fe ff ff       	call   100b24 <chunk_field>
  100c47:	89 34 bb             	mov    %esi,(%ebx,%edi,4)
  100c4a:	89 c2                	mov    %eax,%edx
  100c4c:	56                   	push   %esi
  100c4d:	b9 03 00 00 00       	mov    $0x3,%ecx
  100c52:	89 45 f0             	mov    %eax,-0x10(%ebp)
  100c55:	89 d8                	mov    %ebx,%eax
  100c57:	e8 dd fe ff ff       	call   100b39 <chunk_set>
  100c5c:	8b 55 f0             	mov    -0x10(%ebp),%edx
  100c5f:	89 14 24             	mov    %edx,(%esp)
  100c62:	b9 02 00 00 00       	mov    $0x2,%ecx
  100c67:	89 f2                	mov    %esi,%edx
  100c69:	e8 cb fe ff ff       	call   100b39 <chunk_set>
  100c6e:	58                   	pop    %eax
  100c6f:	8d 65 f4             	lea    -0xc(%ebp),%esp
  100c72:	5b                   	pop    %ebx
  100c73:	5e                   	pop    %esi
  100c74:	5f                   	pop    %edi
  100c75:	5d                   	pop    %ebp
  100c76:	c3                   	ret

00100c77 <free_list_remove>:
  100c77:	55                   	push   %ebp
  100c78:	89 e5                	mov    %esp,%ebp
  100c7a:	57                   	push   %edi
  100c7b:	56                   	push   %esi
  100c7c:	89 d6                	mov    %edx,%esi
  100c7e:	53                   	push   %ebx
  100c7f:	89 c3                	mov    %eax,%ebx
  100c81:	8b 78 08             	mov    0x8(%eax),%edi
  100c84:	e8 cf fe ff ff       	call   100b58 <chunk_size>
  100c89:	81 ff ff 7f 00 00    	cmp    $0x7fff,%edi
  100c8f:	89 c2                	mov    %eax,%edx
  100c91:	76 05                	jbe    100c98 <free_list_remove+0x21>
  100c93:	83 f8 01             	cmp    $0x1,%eax
  100c96:	74 16                	je     100cae <free_list_remove+0x37>
  100c98:	89 f8                	mov    %edi,%eax
  100c9a:	e8 47 ff ff ff       	call   100be6 <bucket_idx.isra.0>
  100c9f:	89 f2                	mov    %esi,%edx
  100ca1:	89 c1                	mov    %eax,%ecx
  100ca3:	89 d8                	mov    %ebx,%eax
  100ca5:	5b                   	pop    %ebx
  100ca6:	5e                   	pop    %esi
  100ca7:	5f                   	pop    %edi
  100ca8:	5d                   	pop    %ebp
  100ca9:	e9 4f ff ff ff       	jmp    100bfd <free_list_remove_bidx>
  100cae:	5b                   	pop    %ebx
  100caf:	5e                   	pop    %esi
  100cb0:	5f                   	pop    %edi
  100cb1:	5d                   	pop    %ebp
  100cb2:	c3                   	ret

00100cb3 <alloc_chunk>:
  100cb3:	55                   	push   %ebp
  100cb4:	89 e5                	mov    %esp,%ebp
  100cb6:	57                   	push   %edi
  100cb7:	56                   	push   %esi
  100cb8:	89 c6                	mov    %eax,%esi
  100cba:	53                   	push   %ebx
  100cbb:	83 ec 10             	sub    $0x10,%esp
  100cbe:	89 55 e4             	mov    %edx,-0x1c(%ebp)
  100cc1:	8b 40 08             	mov    0x8(%eax),%eax
  100cc4:	e8 1d ff ff ff       	call   100be6 <bucket_idx.isra.0>
  100cc9:	89 45 f0             	mov    %eax,-0x10(%ebp)
  100ccc:	8d 3c 86             	lea    (%esi,%eax,4),%edi
  100ccf:	8b 47 10             	mov    0x10(%edi),%eax
  100cd2:	89 45 ec             	mov    %eax,-0x14(%ebp)
  100cd5:	85 c0                	test   %eax,%eax
  100cd7:	74 3e                	je     100d17 <alloc_chunk+0x64>
  100cd9:	c7 45 e8 03 00 00 00 	movl   $0x3,-0x18(%ebp)
  100ce0:	8b 5f 10             	mov    0x10(%edi),%ebx
  100ce3:	89 f0                	mov    %esi,%eax
  100ce5:	89 da                	mov    %ebx,%edx
  100ce7:	e8 6c fe ff ff       	call   100b58 <chunk_size>
  100cec:	8b 55 e4             	mov    -0x1c(%ebp),%edx
  100cef:	39 d0                	cmp    %edx,%eax
  100cf1:	72 05                	jb     100cf8 <alloc_chunk+0x45>
  100cf3:	8b 4d f0             	mov    -0x10(%ebp),%ecx
  100cf6:	eb 34                	jmp    100d2c <alloc_chunk+0x79>
  100cf8:	b9 03 00 00 00       	mov    $0x3,%ecx
  100cfd:	89 da                	mov    %ebx,%edx
  100cff:	89 f0                	mov    %esi,%eax
  100d01:	e8 1e fe ff ff       	call   100b24 <chunk_field>
  100d06:	ff 4d e8             	decl   -0x18(%ebp)
  100d09:	89 47 10             	mov    %eax,0x10(%edi)
  100d0c:	39 45 ec             	cmp    %eax,-0x14(%ebp)
  100d0f:	74 06                	je     100d17 <alloc_chunk+0x64>
  100d11:	83 7d e8 00          	cmpl   $0x0,-0x18(%ebp)
  100d15:	75 c9                	jne    100ce0 <alloc_chunk+0x2d>
  100d17:	8b 4d f0             	mov    -0x10(%ebp),%ecx
  100d1a:	83 cb ff             	or     $0xffffffff,%ebx
  100d1d:	41                   	inc    %ecx
  100d1e:	d3 e3                	shl    %cl,%ebx
  100d20:	23 5e 0c             	and    0xc(%esi),%ebx
  100d23:	74 10                	je     100d35 <alloc_chunk+0x82>
  100d25:	0f bc cb             	bsf    %ebx,%ecx
  100d28:	8b 5c 8e 10          	mov    0x10(%esi,%ecx,4),%ebx
  100d2c:	89 da                	mov    %ebx,%edx
  100d2e:	89 f0                	mov    %esi,%eax
  100d30:	e8 c8 fe ff ff       	call   100bfd <free_list_remove_bidx>
  100d35:	83 c4 10             	add    $0x10,%esp
  100d38:	89 d8                	mov    %ebx,%eax
  100d3a:	5b                   	pop    %ebx
  100d3b:	5e                   	pop    %esi
  100d3c:	5f                   	pop    %edi
  100d3d:	5d                   	pop    %ebp
  100d3e:	c3                   	ret

00100d3f <split_chunks>:
  100d3f:	55                   	push   %ebp
  100d40:	89 e5                	mov    %esp,%ebp
  100d42:	57                   	push   %edi
  100d43:	56                   	push   %esi
  100d44:	53                   	push   %ebx
  100d45:	89 cb                	mov    %ecx,%ebx
  100d47:	83 ec 08             	sub    $0x8,%esp
  100d4a:	89 55 ec             	mov    %edx,-0x14(%ebp)
  100d4d:	89 45 f0             	mov    %eax,-0x10(%ebp)
  100d50:	e8 03 fe ff ff       	call   100b58 <chunk_size>
  100d55:	8b 55 ec             	mov    -0x14(%ebp),%edx
  100d58:	89 df                	mov    %ebx,%edi
  100d5a:	89 d6                	mov    %edx,%esi
  100d5c:	29 d7                	sub    %edx,%edi
  100d5e:	29 de                	sub    %ebx,%esi
  100d60:	89 f9                	mov    %edi,%ecx
  100d62:	01 c6                	add    %eax,%esi
  100d64:	8b 45 f0             	mov    -0x10(%ebp),%eax
  100d67:	e8 3a fe ff ff       	call   100ba6 <set_chunk_size>
  100d6c:	89 f1                	mov    %esi,%ecx
  100d6e:	89 da                	mov    %ebx,%edx
  100d70:	8b 45 f0             	mov    -0x10(%ebp),%eax
  100d73:	e8 2e fe ff ff       	call   100ba6 <set_chunk_size>
  100d78:	57                   	push   %edi
  100d79:	31 c9                	xor    %ecx,%ecx
  100d7b:	89 da                	mov    %ebx,%edx
  100d7d:	8b 45 f0             	mov    -0x10(%ebp),%eax
  100d80:	e8 b4 fd ff ff       	call   100b39 <chunk_set>
  100d85:	8b 45 f0             	mov    -0x10(%ebp),%eax
  100d88:	89 da                	mov    %ebx,%edx
  100d8a:	5f                   	pop    %edi
  100d8b:	e8 c8 fd ff ff       	call   100b58 <chunk_size>
  100d90:	56                   	push   %esi
  100d91:	31 c9                	xor    %ecx,%ecx
  100d93:	8d 14 03             	lea    (%ebx,%eax,1),%edx
  100d96:	8b 45 f0             	mov    -0x10(%ebp),%eax
  100d99:	e8 9b fd ff ff       	call   100b39 <chunk_set>
  100d9e:	58                   	pop    %eax
  100d9f:	8d 65 f4             	lea    -0xc(%ebp),%esp
  100da2:	5b                   	pop    %ebx
  100da3:	5e                   	pop    %esi
  100da4:	5f                   	pop    %edi
  100da5:	5d                   	pop    %ebp
  100da6:	c3                   	ret

00100da7 <merge_chunks>:
  100da7:	55                   	push   %ebp
  100da8:	89 e5                	mov    %esp,%ebp
  100daa:	57                   	push   %edi
  100dab:	56                   	push   %esi
  100dac:	89 d7                	mov    %edx,%edi
  100dae:	53                   	push   %ebx
  100daf:	53                   	push   %ebx
  100db0:	89 cb                	mov    %ecx,%ebx
  100db2:	89 45 f0             	mov    %eax,-0x10(%ebp)
  100db5:	e8 9e fd ff ff       	call   100b58 <chunk_size>
  100dba:	89 da                	mov    %ebx,%edx
  100dbc:	89 c6                	mov    %eax,%esi
  100dbe:	8b 45 f0             	mov    -0x10(%ebp),%eax
  100dc1:	e8 92 fd ff ff       	call   100b58 <chunk_size>
  100dc6:	89 fa                	mov    %edi,%edx
  100dc8:	01 c6                	add    %eax,%esi
  100dca:	8b 45 f0             	mov    -0x10(%ebp),%eax
  100dcd:	89 f1                	mov    %esi,%ecx
  100dcf:	e8 d2 fd ff ff       	call   100ba6 <set_chunk_size>
  100dd4:	8b 45 f0             	mov    -0x10(%ebp),%eax
  100dd7:	89 da                	mov    %ebx,%edx
  100dd9:	e8 7a fd ff ff       	call   100b58 <chunk_size>
  100dde:	56                   	push   %esi
  100ddf:	31 c9                	xor    %ecx,%ecx
  100de1:	8d 14 03             	lea    (%ebx,%eax,1),%edx
  100de4:	8b 45 f0             	mov    -0x10(%ebp),%eax
  100de7:	e8 4d fd ff ff       	call   100b39 <chunk_set>
  100dec:	5e                   	pop    %esi
  100ded:	8d 65 f4             	lea    -0xc(%ebp),%esp
  100df0:	5b                   	pop    %ebx
  100df1:	5e                   	pop    %esi
  100df2:	5f                   	pop    %edi
  100df3:	5d                   	pop    %ebp
  100df4:	c3                   	ret

00100df5 <free_list_add>:
  100df5:	55                   	push   %ebp
  100df6:	89 e5                	mov    %esp,%ebp
  100df8:	57                   	push   %edi
  100df9:	56                   	push   %esi
  100dfa:	89 d6                	mov    %edx,%esi
  100dfc:	53                   	push   %ebx
  100dfd:	89 c3                	mov    %eax,%ebx
  100dff:	51                   	push   %ecx
  100e00:	8b 78 08             	mov    0x8(%eax),%edi
  100e03:	e8 50 fd ff ff       	call   100b58 <chunk_size>
  100e08:	81 ff ff 7f 00 00    	cmp    $0x7fff,%edi
  100e0e:	89 c2                	mov    %eax,%edx
  100e10:	76 09                	jbe    100e1b <free_list_add+0x26>
  100e12:	83 f8 01             	cmp    $0x1,%eax
  100e15:	0f 84 80 00 00 00    	je     100e9b <free_list_add+0xa6>
  100e1b:	89 f8                	mov    %edi,%eax
  100e1d:	e8 c4 fd ff ff       	call   100be6 <bucket_idx.isra.0>
  100e22:	89 c1                	mov    %eax,%ecx
  100e24:	8d 40 04             	lea    0x4(%eax),%eax
  100e27:	8b 3c 83             	mov    (%ebx,%eax,4),%edi
  100e2a:	85 ff                	test   %edi,%edi
  100e2c:	75 28                	jne    100e56 <free_list_add+0x61>
  100e2e:	ba 01 00 00 00       	mov    $0x1,%edx
  100e33:	d3 e2                	shl    %cl,%edx
  100e35:	09 53 0c             	or     %edx,0xc(%ebx)
  100e38:	b9 02 00 00 00       	mov    $0x2,%ecx
  100e3d:	89 34 83             	mov    %esi,(%ebx,%eax,4)
  100e40:	89 f2                	mov    %esi,%edx
  100e42:	56                   	push   %esi
  100e43:	89 d8                	mov    %ebx,%eax
  100e45:	e8 ef fc ff ff       	call   100b39 <chunk_set>
  100e4a:	89 34 24             	mov    %esi,(%esp)
  100e4d:	b9 03 00 00 00       	mov    $0x3,%ecx
  100e52:	89 f2                	mov    %esi,%edx
  100e54:	eb 3f                	jmp    100e95 <free_list_add+0xa0>
  100e56:	b9 02 00 00 00       	mov    $0x2,%ecx
  100e5b:	89 fa                	mov    %edi,%edx
  100e5d:	89 d8                	mov    %ebx,%eax
  100e5f:	e8 c0 fc ff ff       	call   100b24 <chunk_field>
  100e64:	89 f2                	mov    %esi,%edx
  100e66:	89 45 f0             	mov    %eax,-0x10(%ebp)
  100e69:	50                   	push   %eax
  100e6a:	89 d8                	mov    %ebx,%eax
  100e6c:	e8 c8 fc ff ff       	call   100b39 <chunk_set>
  100e71:	b9 03 00 00 00       	mov    $0x3,%ecx
  100e76:	89 3c 24             	mov    %edi,(%esp)
  100e79:	89 f2                	mov    %esi,%edx
  100e7b:	e8 b9 fc ff ff       	call   100b39 <chunk_set>
  100e80:	89 34 24             	mov    %esi,(%esp)
  100e83:	8b 55 f0             	mov    -0x10(%ebp),%edx
  100e86:	e8 ae fc ff ff       	call   100b39 <chunk_set>
  100e8b:	89 34 24             	mov    %esi,(%esp)
  100e8e:	b9 02 00 00 00       	mov    $0x2,%ecx
  100e93:	89 fa                	mov    %edi,%edx
  100e95:	e8 9f fc ff ff       	call   100b39 <chunk_set>
  100e9a:	58                   	pop    %eax
  100e9b:	8d 65 f4             	lea    -0xc(%ebp),%esp
  100e9e:	5b                   	pop    %ebx
  100e9f:	5e                   	pop    %esi
  100ea0:	5f                   	pop    %edi
  100ea1:	5d                   	pop    %ebp
  100ea2:	c3                   	ret

00100ea3 <free_chunk>:
  100ea3:	55                   	push   %ebp
  100ea4:	89 e5                	mov    %esp,%ebp
  100ea6:	57                   	push   %edi
  100ea7:	56                   	push   %esi
  100ea8:	89 c6                	mov    %eax,%esi
  100eaa:	53                   	push   %ebx
  100eab:	89 d3                	mov    %edx,%ebx
  100ead:	e8 a6 fc ff ff       	call   100b58 <chunk_size>
  100eb2:	b9 01 00 00 00       	mov    $0x1,%ecx
  100eb7:	8d 3c 03             	lea    (%ebx,%eax,1),%edi
  100eba:	89 f0                	mov    %esi,%eax
  100ebc:	89 fa                	mov    %edi,%edx
  100ebe:	e8 61 fc ff ff       	call   100b24 <chunk_field>
  100ec3:	a8 01                	test   $0x1,%al
  100ec5:	75 1e                	jne    100ee5 <free_chunk+0x42>
  100ec7:	89 fa                	mov    %edi,%edx
  100ec9:	89 f0                	mov    %esi,%eax
  100ecb:	e8 a7 fd ff ff       	call   100c77 <free_list_remove>
  100ed0:	89 da                	mov    %ebx,%edx
  100ed2:	89 f0                	mov    %esi,%eax
  100ed4:	e8 7f fc ff ff       	call   100b58 <chunk_size>
  100ed9:	89 da                	mov    %ebx,%edx
  100edb:	8d 0c 03             	lea    (%ebx,%eax,1),%ecx
  100ede:	89 f0                	mov    %esi,%eax
  100ee0:	e8 c2 fe ff ff       	call   100da7 <merge_chunks>
  100ee5:	31 c9                	xor    %ecx,%ecx
  100ee7:	89 da                	mov    %ebx,%edx
  100ee9:	89 f0                	mov    %esi,%eax
  100eeb:	89 df                	mov    %ebx,%edi
  100eed:	e8 32 fc ff ff       	call   100b24 <chunk_field>
  100ef2:	b9 01 00 00 00       	mov    $0x1,%ecx
  100ef7:	29 c7                	sub    %eax,%edi
  100ef9:	89 f0                	mov    %esi,%eax
  100efb:	89 fa                	mov    %edi,%edx
  100efd:	e8 22 fc ff ff       	call   100b24 <chunk_field>
  100f02:	a8 01                	test   $0x1,%al
  100f04:	75 2e                	jne    100f34 <free_chunk+0x91>
  100f06:	89 fa                	mov    %edi,%edx
  100f08:	89 f0                	mov    %esi,%eax
  100f0a:	e8 68 fd ff ff       	call   100c77 <free_list_remove>
  100f0f:	89 da                	mov    %ebx,%edx
  100f11:	31 c9                	xor    %ecx,%ecx
  100f13:	89 f0                	mov    %esi,%eax
  100f15:	e8 0a fc ff ff       	call   100b24 <chunk_field>
  100f1a:	89 da                	mov    %ebx,%edx
  100f1c:	29 c2                	sub    %eax,%edx
  100f1e:	89 d9                	mov    %ebx,%ecx
  100f20:	89 f0                	mov    %esi,%eax
  100f22:	e8 80 fe ff ff       	call   100da7 <merge_chunks>
  100f27:	89 da                	mov    %ebx,%edx
  100f29:	31 c9                	xor    %ecx,%ecx
  100f2b:	89 f0                	mov    %esi,%eax
  100f2d:	e8 f2 fb ff ff       	call   100b24 <chunk_field>
  100f32:	29 c3                	sub    %eax,%ebx
  100f34:	89 da                	mov    %ebx,%edx
  100f36:	5b                   	pop    %ebx
  100f37:	89 f0                	mov    %esi,%eax
  100f39:	5e                   	pop    %esi
  100f3a:	5f                   	pop    %edi
  100f3b:	5d                   	pop    %ebp
  100f3c:	e9 b4 fe ff ff       	jmp    100df5 <free_list_add>

00100f41 <sys_heap_free>:
  100f41:	55                   	push   %ebp
  100f42:	89 e5                	mov    %esp,%ebp
  100f44:	57                   	push   %edi
  100f45:	56                   	push   %esi
  100f46:	53                   	push   %ebx
  100f47:	50                   	push   %eax
  100f48:	8b 7d 0c             	mov    0xc(%ebp),%edi
  100f4b:	8b 45 08             	mov    0x8(%ebp),%eax
  100f4e:	85 ff                	test   %edi,%edi
  100f50:	0f 84 c7 00 00 00    	je     10101d <sys_heap_free+0xdc>
  100f56:	8b 00                	mov    (%eax),%eax
  100f58:	89 fa                	mov    %edi,%edx
  100f5a:	89 45 f0             	mov    %eax,-0x10(%ebp)
  100f5d:	e8 57 fc ff ff       	call   100bb9 <mem_to_chunkid>
  100f62:	b9 01 00 00 00       	mov    $0x1,%ecx
  100f67:	89 c2                	mov    %eax,%edx
  100f69:	89 c3                	mov    %eax,%ebx
  100f6b:	8b 45 f0             	mov    -0x10(%ebp),%eax
  100f6e:	e8 b1 fb ff ff       	call   100b24 <chunk_field>
  100f73:	a8 01                	test   $0x1,%al
  100f75:	75 30                	jne    100fa7 <sys_heap_free+0x66>
  100f77:	68 af 00 00 00       	push   $0xaf
  100f7c:	68 ba 10 11 00       	push   $0x1110ba
  100f81:	68 dd 10 11 00       	push   $0x1110dd
  100f86:	68 ee 10 11 00       	push   $0x1110ee
  100f8b:	e8 4d 06 00 00       	call   1015dd <assert_print>
  100f90:	83 c4 10             	add    $0x10,%esp
  100f93:	57                   	push   %edi
  100f94:	68 0b 11 11 00       	push   $0x11110b
  100f99:	e8 3f 06 00 00       	call   1015dd <assert_print>
  100f9e:	5e                   	pop    %esi
  100f9f:	5f                   	pop    %edi
  100fa0:	68 af 00 00 00       	push   $0xaf
  100fa5:	eb 4d                	jmp    100ff4 <sys_heap_free+0xb3>
  100fa7:	89 da                	mov    %ebx,%edx
  100fa9:	8b 45 f0             	mov    -0x10(%ebp),%eax
  100fac:	e8 a7 fb ff ff       	call   100b58 <chunk_size>
  100fb1:	31 c9                	xor    %ecx,%ecx
  100fb3:	8d 34 03             	lea    (%ebx,%eax,1),%esi
  100fb6:	8b 45 f0             	mov    -0x10(%ebp),%eax
  100fb9:	89 f2                	mov    %esi,%edx
  100fbb:	e8 64 fb ff ff       	call   100b24 <chunk_field>
  100fc0:	29 c6                	sub    %eax,%esi
  100fc2:	39 f3                	cmp    %esi,%ebx
  100fc4:	74 3a                	je     101000 <sys_heap_free+0xbf>
  100fc6:	68 b7 00 00 00       	push   $0xb7
  100fcb:	68 ba 10 11 00       	push   $0x1110ba
  100fd0:	68 43 11 11 00       	push   $0x111143
  100fd5:	68 ee 10 11 00       	push   $0x1110ee
  100fda:	e8 fe 05 00 00       	call   1015dd <assert_print>
  100fdf:	83 c4 10             	add    $0x10,%esp
  100fe2:	57                   	push   %edi
  100fe3:	68 69 11 11 00       	push   $0x111169
  100fe8:	e8 f0 05 00 00       	call   1015dd <assert_print>
  100fed:	59                   	pop    %ecx
  100fee:	5b                   	pop    %ebx
  100fef:	68 b7 00 00 00       	push   $0xb7
  100ff4:	68 ba 10 11 00       	push   $0x1110ba
  100ff9:	e8 d0 05 00 00       	call   1015ce <assert_post_action>
  100ffe:	58                   	pop    %eax
  100fff:	5a                   	pop    %edx
  101000:	89 da                	mov    %ebx,%edx
  101002:	8b 45 f0             	mov    -0x10(%ebp),%eax
  101005:	31 c9                	xor    %ecx,%ecx
  101007:	e8 5d fb ff ff       	call   100b69 <set_chunk_used>
  10100c:	8b 45 f0             	mov    -0x10(%ebp),%eax
  10100f:	8d 65 f4             	lea    -0xc(%ebp),%esp
  101012:	89 da                	mov    %ebx,%edx
  101014:	5b                   	pop    %ebx
  101015:	5e                   	pop    %esi
  101016:	5f                   	pop    %edi
  101017:	5d                   	pop    %ebp
  101018:	e9 86 fe ff ff       	jmp    100ea3 <free_chunk>
  10101d:	8d 65 f4             	lea    -0xc(%ebp),%esp
  101020:	5b                   	pop    %ebx
  101021:	5e                   	pop    %esi
  101022:	5f                   	pop    %edi
  101023:	5d                   	pop    %ebp
  101024:	c3                   	ret

00101025 <sys_heap_alloc>:
  101025:	55                   	push   %ebp
  101026:	89 e5                	mov    %esp,%ebp
  101028:	57                   	push   %edi
  101029:	56                   	push   %esi
  10102a:	53                   	push   %ebx
  10102b:	8b 45 08             	mov    0x8(%ebp),%eax
  10102e:	8b 55 0c             	mov    0xc(%ebp),%edx
  101031:	85 d2                	test   %edx,%edx
  101033:	8b 18                	mov    (%eax),%ebx
  101035:	75 04                	jne    10103b <sys_heap_alloc+0x16>
  101037:	31 c0                	xor    %eax,%eax
  101039:	eb 65                	jmp    1010a0 <sys_heap_alloc+0x7b>
  10103b:	89 d1                	mov    %edx,%ecx
  10103d:	8b 43 08             	mov    0x8(%ebx),%eax
  101040:	c1 e9 03             	shr    $0x3,%ecx
  101043:	39 c1                	cmp    %eax,%ecx
  101045:	73 f0                	jae    101037 <sys_heap_alloc+0x12>
  101047:	e8 88 fb ff ff       	call   100bd4 <bytes_to_chunksz.isra.0>
  10104c:	89 c2                	mov    %eax,%edx
  10104e:	89 c7                	mov    %eax,%edi
  101050:	89 d8                	mov    %ebx,%eax
  101052:	e8 5c fc ff ff       	call   100cb3 <alloc_chunk>
  101057:	89 c6                	mov    %eax,%esi
  101059:	85 c0                	test   %eax,%eax
  10105b:	74 da                	je     101037 <sys_heap_alloc+0x12>
  10105d:	89 c2                	mov    %eax,%edx
  10105f:	89 d8                	mov    %ebx,%eax
  101061:	e8 f2 fa ff ff       	call   100b58 <chunk_size>
  101066:	39 c7                	cmp    %eax,%edi
  101068:	73 16                	jae    101080 <sys_heap_alloc+0x5b>
  10106a:	01 f7                	add    %esi,%edi
  10106c:	89 f2                	mov    %esi,%edx
  10106e:	89 d8                	mov    %ebx,%eax
  101070:	89 f9                	mov    %edi,%ecx
  101072:	e8 c8 fc ff ff       	call   100d3f <split_chunks>
  101077:	89 fa                	mov    %edi,%edx
  101079:	89 d8                	mov    %ebx,%eax
  10107b:	e8 75 fd ff ff       	call   100df5 <free_list_add>
  101080:	89 d8                	mov    %ebx,%eax
  101082:	b9 01 00 00 00       	mov    $0x1,%ecx
  101087:	89 f2                	mov    %esi,%edx
  101089:	e8 db fa ff ff       	call   100b69 <set_chunk_used>
  10108e:	81 7b 08 00 80 00 00 	cmpl   $0x8000,0x8(%ebx)
  101095:	19 c0                	sbb    %eax,%eax
  101097:	83 e0 fc             	and    $0xfffffffc,%eax
  10109a:	8d 44 f0 08          	lea    0x8(%eax,%esi,8),%eax
  10109e:	01 d8                	add    %ebx,%eax
  1010a0:	5b                   	pop    %ebx
  1010a1:	5e                   	pop    %esi
  1010a2:	5f                   	pop    %edi
  1010a3:	5d                   	pop    %ebp
  1010a4:	c3                   	ret

001010a5 <sys_heap_aligned_alloc>:
  1010a5:	55                   	push   %ebp
  1010a6:	89 e5                	mov    %esp,%ebp
  1010a8:	57                   	push   %edi
  1010a9:	56                   	push   %esi
  1010aa:	53                   	push   %ebx
  1010ab:	83 ec 08             	sub    $0x8,%esp
  1010ae:	8b 45 10             	mov    0x10(%ebp),%eax
  1010b1:	8b 5d 0c             	mov    0xc(%ebp),%ebx
  1010b4:	89 45 ec             	mov    %eax,-0x14(%ebp)
  1010b7:	8b 45 08             	mov    0x8(%ebp),%eax
  1010ba:	8b 00                	mov    (%eax),%eax
  1010bc:	89 45 f0             	mov    %eax,-0x10(%ebp)
  1010bf:	8d 43 ff             	lea    -0x1(%ebx),%eax
  1010c2:	8b 75 f0             	mov    -0x10(%ebp),%esi
  1010c5:	21 d8                	and    %ebx,%eax
  1010c7:	8b 4e 08             	mov    0x8(%esi),%ecx
  1010ca:	74 60                	je     10112c <sys_heap_aligned_alloc+0x87>
  1010cc:	81 f9 00 80 00 00    	cmp    $0x8000,%ecx
  1010d2:	89 df                	mov    %ebx,%edi
  1010d4:	19 d2                	sbb    %edx,%edx
  1010d6:	89 c6                	mov    %eax,%esi
  1010d8:	83 e2 fc             	and    $0xfffffffc,%edx
  1010db:	f7 df                	neg    %edi
  1010dd:	21 df                	and    %ebx,%edi
  1010df:	83 c2 08             	add    $0x8,%edx
  1010e2:	89 f8                	mov    %edi,%eax
  1010e4:	39 fa                	cmp    %edi,%edx
  1010e6:	73 02                	jae    1010ea <sys_heap_aligned_alloc+0x45>
  1010e8:	89 d0                	mov    %edx,%eax
  1010ea:	8d 56 ff             	lea    -0x1(%esi),%edx
  1010ed:	89 f3                	mov    %esi,%ebx
  1010ef:	85 f2                	test   %esi,%edx
  1010f1:	74 5f                	je     101152 <sys_heap_aligned_alloc+0xad>
  1010f3:	68 44 01 00 00       	push   $0x144
  1010f8:	68 ba 10 11 00       	push   $0x1110ba
  1010fd:	68 a5 11 11 00       	push   $0x1111a5
  101102:	68 ee 10 11 00       	push   $0x1110ee
  101107:	e8 d1 04 00 00       	call   1015dd <assert_print>
  10110c:	83 c4 10             	add    $0x10,%esp
  10110f:	68 c0 11 11 00       	push   $0x1111c0
  101114:	e8 c4 04 00 00       	call   1015dd <assert_print>
  101119:	c7 04 24 44 01 00 00 	movl   $0x144,(%esp)
  101120:	68 ba 10 11 00       	push   $0x1110ba
  101125:	e8 a4 04 00 00       	call   1015ce <assert_post_action>
  10112a:	58                   	pop    %eax
  10112b:	5a                   	pop    %edx
  10112c:	81 f9 00 80 00 00    	cmp    $0x8000,%ecx
  101132:	19 c0                	sbb    %eax,%eax
  101134:	31 ff                	xor    %edi,%edi
  101136:	83 e0 fc             	and    $0xfffffffc,%eax
  101139:	83 c0 08             	add    $0x8,%eax
  10113c:	39 d8                	cmp    %ebx,%eax
  10113e:	72 12                	jb     101152 <sys_heap_aligned_alloc+0xad>
  101140:	8b 45 ec             	mov    -0x14(%ebp),%eax
  101143:	89 45 0c             	mov    %eax,0xc(%ebp)
  101146:	8d 65 f4             	lea    -0xc(%ebp),%esp
  101149:	5b                   	pop    %ebx
  10114a:	5e                   	pop    %esi
  10114b:	5f                   	pop    %edi
  10114c:	5d                   	pop    %ebp
  10114d:	e9 d3 fe ff ff       	jmp    101025 <sys_heap_alloc>
  101152:	83 7d ec 00          	cmpl   $0x0,-0x14(%ebp)
  101156:	75 07                	jne    10115f <sys_heap_aligned_alloc+0xba>
  101158:	31 db                	xor    %ebx,%ebx
  10115a:	e9 c7 00 00 00       	jmp    101226 <sys_heap_aligned_alloc+0x181>
  10115f:	8b 55 ec             	mov    -0x14(%ebp),%edx
  101162:	c1 ea 03             	shr    $0x3,%edx
  101165:	39 ca                	cmp    %ecx,%edx
  101167:	73 ef                	jae    101158 <sys_heap_aligned_alloc+0xb3>
  101169:	8b 75 ec             	mov    -0x14(%ebp),%esi
  10116c:	8d 14 1e             	lea    (%esi,%ebx,1),%edx
  10116f:	29 c2                	sub    %eax,%edx
  101171:	89 c8                	mov    %ecx,%eax
  101173:	e8 5c fa ff ff       	call   100bd4 <bytes_to_chunksz.isra.0>
  101178:	89 c2                	mov    %eax,%edx
  10117a:	8b 45 f0             	mov    -0x10(%ebp),%eax
  10117d:	e8 31 fb ff ff       	call   100cb3 <alloc_chunk>
  101182:	89 c6                	mov    %eax,%esi
  101184:	85 c0                	test   %eax,%eax
  101186:	74 d0                	je     101158 <sys_heap_aligned_alloc+0xb3>
  101188:	8b 45 f0             	mov    -0x10(%ebp),%eax
  10118b:	8d 14 f7             	lea    (%edi,%esi,8),%edx
  10118e:	8b 4d f0             	mov    -0x10(%ebp),%ecx
  101191:	81 78 08 00 80 00 00 	cmpl   $0x8000,0x8(%eax)
  101198:	19 c0                	sbb    %eax,%eax
  10119a:	83 e0 fc             	and    $0xfffffffc,%eax
  10119d:	8d 44 10 08          	lea    0x8(%eax,%edx,1),%eax
  1011a1:	31 d2                	xor    %edx,%edx
  1011a3:	01 c8                	add    %ecx,%eax
  1011a5:	8d 4c 03 ff          	lea    -0x1(%ebx,%eax,1),%ecx
  1011a9:	89 c8                	mov    %ecx,%eax
  1011ab:	f7 f3                	div    %ebx
  1011ad:	29 d1                	sub    %edx,%ecx
  1011af:	8b 45 f0             	mov    -0x10(%ebp),%eax
  1011b2:	89 cb                	mov    %ecx,%ebx
  1011b4:	29 fb                	sub    %edi,%ebx
  1011b6:	89 da                	mov    %ebx,%edx
  1011b8:	e8 fc f9 ff ff       	call   100bb9 <mem_to_chunkid>
  1011bd:	8b 4d f0             	mov    -0x10(%ebp),%ecx
  1011c0:	89 c7                	mov    %eax,%edi
  1011c2:	8b 45 ec             	mov    -0x14(%ebp),%eax
  1011c5:	8d 44 03 07          	lea    0x7(%ebx,%eax,1),%eax
  1011c9:	83 e0 f8             	and    $0xfffffff8,%eax
  1011cc:	29 c8                	sub    %ecx,%eax
  1011ce:	c1 f8 03             	sar    $0x3,%eax
  1011d1:	39 fe                	cmp    %edi,%esi
  1011d3:	89 45 ec             	mov    %eax,-0x14(%ebp)
  1011d6:	73 16                	jae    1011ee <sys_heap_aligned_alloc+0x149>
  1011d8:	89 f2                	mov    %esi,%edx
  1011da:	8b 45 f0             	mov    -0x10(%ebp),%eax
  1011dd:	89 f9                	mov    %edi,%ecx
  1011df:	e8 5b fb ff ff       	call   100d3f <split_chunks>
  1011e4:	89 f2                	mov    %esi,%edx
  1011e6:	8b 45 f0             	mov    -0x10(%ebp),%eax
  1011e9:	e8 07 fc ff ff       	call   100df5 <free_list_add>
  1011ee:	89 fa                	mov    %edi,%edx
  1011f0:	8b 45 f0             	mov    -0x10(%ebp),%eax
  1011f3:	e8 60 f9 ff ff       	call   100b58 <chunk_size>
  1011f8:	01 f8                	add    %edi,%eax
  1011fa:	39 45 ec             	cmp    %eax,-0x14(%ebp)
  1011fd:	73 18                	jae    101217 <sys_heap_aligned_alloc+0x172>
  1011ff:	89 fa                	mov    %edi,%edx
  101201:	8b 45 f0             	mov    -0x10(%ebp),%eax
  101204:	8b 4d ec             	mov    -0x14(%ebp),%ecx
  101207:	e8 33 fb ff ff       	call   100d3f <split_chunks>
  10120c:	8b 55 ec             	mov    -0x14(%ebp),%edx
  10120f:	8b 45 f0             	mov    -0x10(%ebp),%eax
  101212:	e8 de fb ff ff       	call   100df5 <free_list_add>
  101217:	b9 01 00 00 00       	mov    $0x1,%ecx
  10121c:	89 fa                	mov    %edi,%edx
  10121e:	8b 45 f0             	mov    -0x10(%ebp),%eax
  101221:	e8 43 f9 ff ff       	call   100b69 <set_chunk_used>
  101226:	8d 65 f4             	lea    -0xc(%ebp),%esp
  101229:	89 d8                	mov    %ebx,%eax
  10122b:	5b                   	pop    %ebx
  10122c:	5e                   	pop    %esi
  10122d:	5f                   	pop    %edi
  10122e:	5d                   	pop    %ebp
  10122f:	c3                   	ret

00101230 <sys_heap_init>:
  101230:	55                   	push   %ebp
  101231:	89 e5                	mov    %esp,%ebp
  101233:	57                   	push   %edi
  101234:	56                   	push   %esi
  101235:	53                   	push   %ebx
  101236:	83 ec 08             	sub    $0x8,%esp
  101239:	8b 4d 10             	mov    0x10(%ebp),%ecx
  10123c:	8b 55 08             	mov    0x8(%ebp),%edx
  10123f:	8b 45 0c             	mov    0xc(%ebp),%eax
  101242:	81 f9 ff ff 03 00    	cmp    $0x3ffff,%ecx
  101248:	77 39                	ja     101283 <sys_heap_init+0x53>
  10124a:	be 04 00 00 00       	mov    $0x4,%esi
  10124f:	83 f9 04             	cmp    $0x4,%ecx
  101252:	77 34                	ja     101288 <sys_heap_init+0x58>
  101254:	68 f2 01 00 00       	push   $0x1f2
  101259:	68 ba 10 11 00       	push   $0x1110ba
  10125e:	68 dd 11 11 00       	push   $0x1111dd
  101263:	68 ee 10 11 00       	push   $0x1110ee
  101268:	e8 70 03 00 00       	call   1015dd <assert_print>
  10126d:	83 c4 10             	add    $0x10,%esp
  101270:	68 fe 11 11 00       	push   $0x1111fe
  101275:	e8 63 03 00 00       	call   1015dd <assert_print>
  10127a:	c7 04 24 f2 01 00 00 	movl   $0x1f2,(%esp)
  101281:	eb 4e                	jmp    1012d1 <sys_heap_init+0xa1>
  101283:	be 08 00 00 00       	mov    $0x8,%esi
  101288:	29 f1                	sub    %esi,%ecx
  10128a:	8d 58 07             	lea    0x7(%eax),%ebx
  10128d:	01 c8                	add    %ecx,%eax
  10128f:	83 e3 f8             	and    $0xfffffff8,%ebx
  101292:	83 e0 f8             	and    $0xfffffff8,%eax
  101295:	29 d8                	sub    %ebx,%eax
  101297:	89 c7                	mov    %eax,%edi
  101299:	c1 ef 03             	shr    $0x3,%edi
  10129c:	83 f8 17             	cmp    $0x17,%eax
  10129f:	89 7d f0             	mov    %edi,-0x10(%ebp)
  1012a2:	77 39                	ja     1012dd <sys_heap_init+0xad>
  1012a4:	68 fb 01 00 00       	push   $0x1fb
  1012a9:	68 ba 10 11 00       	push   $0x1110ba
  1012ae:	68 17 12 11 00       	push   $0x111217
  1012b3:	68 ee 10 11 00       	push   $0x1110ee
  1012b8:	e8 20 03 00 00       	call   1015dd <assert_print>
  1012bd:	83 c4 10             	add    $0x10,%esp
  1012c0:	68 fe 11 11 00       	push   $0x1111fe
  1012c5:	e8 13 03 00 00       	call   1015dd <assert_print>
  1012ca:	c7 04 24 fb 01 00 00 	movl   $0x1fb,(%esp)
  1012d1:	68 ba 10 11 00       	push   $0x1110ba
  1012d6:	e8 f3 02 00 00       	call   1015ce <assert_post_action>
  1012db:	5b                   	pop    %ebx
  1012dc:	5e                   	pop    %esi
  1012dd:	8b 45 f0             	mov    -0x10(%ebp),%eax
  1012e0:	31 c9                	xor    %ecx,%ecx
  1012e2:	89 1a                	mov    %ebx,(%edx)
  1012e4:	89 c2                	mov    %eax,%edx
  1012e6:	89 43 08             	mov    %eax,0x8(%ebx)
  1012e9:	89 4b 0c             	mov    %ecx,0xc(%ebx)
  1012ec:	e8 f5 f8 ff ff       	call   100be6 <bucket_idx.isra.0>
  1012f1:	ba 01 00 00 00       	mov    $0x1,%edx
  1012f6:	89 c6                	mov    %eax,%esi
  1012f8:	8d 3c 85 14 00 00 00 	lea    0x14(,%eax,4),%edi
  1012ff:	8d 47 07             	lea    0x7(%edi),%eax
  101302:	c1 e8 03             	shr    $0x3,%eax
  101305:	89 45 ec             	mov    %eax,-0x14(%ebp)
  101308:	8b 45 f0             	mov    -0x10(%ebp),%eax
  10130b:	e8 c4 f8 ff ff       	call   100bd4 <bytes_to_chunksz.isra.0>
  101310:	8b 55 ec             	mov    -0x14(%ebp),%edx
  101313:	01 d0                	add    %edx,%eax
  101315:	39 45 f0             	cmp    %eax,-0x10(%ebp)
  101318:	0f 82 8e 00 00 00    	jb     1013ac <sys_heap_init+0x17c>
  10131e:	31 c9                	xor    %ecx,%ecx
  101320:	46                   	inc    %esi
  101321:	7c 03                	jl     101326 <sys_heap_init+0xf6>
  101323:	8d 4f f0             	lea    -0x10(%edi),%ecx
  101326:	8d 53 10             	lea    0x10(%ebx),%edx
  101329:	31 c0                	xor    %eax,%eax
  10132b:	89 d7                	mov    %edx,%edi
  10132d:	31 d2                	xor    %edx,%edx
  10132f:	f3 aa                	rep stos %al,%es:(%edi)
  101331:	8b 4d ec             	mov    -0x14(%ebp),%ecx
  101334:	89 d8                	mov    %ebx,%eax
  101336:	e8 6b f8 ff ff       	call   100ba6 <set_chunk_size>
  10133b:	6a 00                	push   $0x0
  10133d:	89 d8                	mov    %ebx,%eax
  10133f:	31 c9                	xor    %ecx,%ecx
  101341:	31 d2                	xor    %edx,%edx
  101343:	e8 f1 f7 ff ff       	call   100b39 <chunk_set>
  101348:	5a                   	pop    %edx
  101349:	b9 01 00 00 00       	mov    $0x1,%ecx
  10134e:	31 d2                	xor    %edx,%edx
  101350:	e8 14 f8 ff ff       	call   100b69 <set_chunk_used>
  101355:	8b 45 ec             	mov    -0x14(%ebp),%eax
  101358:	8b 75 f0             	mov    -0x10(%ebp),%esi
  10135b:	89 c2                	mov    %eax,%edx
  10135d:	29 c6                	sub    %eax,%esi
  10135f:	89 d8                	mov    %ebx,%eax
  101361:	89 f1                	mov    %esi,%ecx
  101363:	e8 3e f8 ff ff       	call   100ba6 <set_chunk_size>
  101368:	89 d8                	mov    %ebx,%eax
  10136a:	ff 75 ec             	push   -0x14(%ebp)
  10136d:	31 c9                	xor    %ecx,%ecx
  10136f:	8b 55 ec             	mov    -0x14(%ebp),%edx
  101372:	e8 c2 f7 ff ff       	call   100b39 <chunk_set>
  101377:	5f                   	pop    %edi
  101378:	8b 55 f0             	mov    -0x10(%ebp),%edx
  10137b:	e8 26 f8 ff ff       	call   100ba6 <set_chunk_size>
  101380:	56                   	push   %esi
  101381:	89 d8                	mov    %ebx,%eax
  101383:	8b 55 f0             	mov    -0x10(%ebp),%edx
  101386:	31 c9                	xor    %ecx,%ecx
  101388:	e8 ac f7 ff ff       	call   100b39 <chunk_set>
  10138d:	5a                   	pop    %edx
  10138e:	b9 01 00 00 00       	mov    $0x1,%ecx
  101393:	8b 55 f0             	mov    -0x10(%ebp),%edx
  101396:	e8 ce f7 ff ff       	call   100b69 <set_chunk_used>
  10139b:	8b 55 ec             	mov    -0x14(%ebp),%edx
  10139e:	8d 65 f4             	lea    -0xc(%ebp),%esp
  1013a1:	89 d8                	mov    %ebx,%eax
  1013a3:	5b                   	pop    %ebx
  1013a4:	5e                   	pop    %esi
  1013a5:	5f                   	pop    %edi
  1013a6:	5d                   	pop    %ebp
  1013a7:	e9 49 fa ff ff       	jmp    100df5 <free_list_add>
  1013ac:	68 0c 02 00 00       	push   $0x20c
  1013b1:	68 ba 10 11 00       	push   $0x1110ba
  1013b6:	68 40 12 11 00       	push   $0x111240
  1013bb:	68 ee 10 11 00       	push   $0x1110ee
  1013c0:	e8 18 02 00 00       	call   1015dd <assert_print>
  1013c5:	83 c4 10             	add    $0x10,%esp
  1013c8:	68 fe 11 11 00       	push   $0x1111fe
  1013cd:	e8 0b 02 00 00       	call   1015dd <assert_print>
  1013d2:	c7 04 24 0c 02 00 00 	movl   $0x20c,(%esp)
  1013d9:	e9 f3 fe ff ff       	jmp    1012d1 <sys_heap_init+0xa1>

001013de <char_out>:
  1013de:	ff 25 08 b5 11 00    	jmp    *0x11b508

001013e4 <__printk_hook_install>:
  1013e4:	55                   	push   %ebp
  1013e5:	89 e5                	mov    %esp,%ebp
  1013e7:	8b 45 08             	mov    0x8(%ebp),%eax
  1013ea:	5d                   	pop    %ebp
  1013eb:	a3 08 b5 11 00       	mov    %eax,0x11b508
  1013f0:	c3                   	ret

001013f1 <z_impl_k_str_out>:
  1013f1:	55                   	push   %ebp
  1013f2:	89 e5                	mov    %esp,%ebp
  1013f4:	56                   	push   %esi
  1013f5:	53                   	push   %ebx
  1013f6:	8b 5d 08             	mov    0x8(%ebp),%ebx
  1013f9:	8b 75 0c             	mov    0xc(%ebp),%esi
  1013fc:	01 de                	add    %ebx,%esi
  1013fe:	39 f3                	cmp    %esi,%ebx
  101400:	74 0e                	je     101410 <z_impl_k_str_out+0x1f>
  101402:	0f be 03             	movsbl (%ebx),%eax
  101405:	50                   	push   %eax
  101406:	43                   	inc    %ebx
  101407:	ff 15 08 b5 11 00    	call   *0x11b508
  10140d:	58                   	pop    %eax
  10140e:	eb ee                	jmp    1013fe <z_impl_k_str_out+0xd>
  101410:	8d 65 f8             	lea    -0x8(%ebp),%esp
  101413:	5b                   	pop    %ebx
  101414:	5e                   	pop    %esi
  101415:	5d                   	pop    %ebp
  101416:	c3                   	ret

00101417 <buf_flush>:
  101417:	55                   	push   %ebp
  101418:	89 e5                	mov    %esp,%ebp
  10141a:	56                   	push   %esi
  10141b:	53                   	push   %ebx
  10141c:	89 c3                	mov    %eax,%ebx
  10141e:	8b 50 10             	mov    0x10(%eax),%edx
  101421:	83 c0 14             	add    $0x14,%eax
  101424:	8c c9                	mov    %cs,%ecx
  101426:	83 f9 2b             	cmp    $0x2b,%ecx
  101429:	75 09                	jne    101434 <buf_flush+0x1d>
  10142b:	be 43 00 00 00       	mov    $0x43,%esi
  101430:	cd 80                	int    $0x80
  101432:	eb 09                	jmp    10143d <buf_flush+0x26>
  101434:	52                   	push   %edx
  101435:	50                   	push   %eax
  101436:	e8 b6 ff ff ff       	call   1013f1 <z_impl_k_str_out>
  10143b:	5a                   	pop    %edx
  10143c:	59                   	pop    %ecx
  10143d:	31 c0                	xor    %eax,%eax
  10143f:	89 43 10             	mov    %eax,0x10(%ebx)
  101442:	8d 65 f8             	lea    -0x8(%ebp),%esp
  101445:	5b                   	pop    %ebx
  101446:	5e                   	pop    %esi
  101447:	5d                   	pop    %ebp
  101448:	c3                   	ret

00101449 <vprintk>:
  101449:	55                   	push   %ebp
  10144a:	89 e5                	mov    %esp,%ebp
  10144c:	57                   	push   %edi
  10144d:	56                   	push   %esi
  10144e:	53                   	push   %ebx
  10144f:	83 ec 34             	sub    $0x34,%esp
  101452:	8b 55 08             	mov    0x8(%ebp),%edx
  101455:	8b 75 0c             	mov    0xc(%ebp),%esi
  101458:	8c c8                	mov    %cs,%eax
  10145a:	83 f8 2b             	cmp    $0x2b,%eax
  10145d:	8d 5d c0             	lea    -0x40(%ebp),%ebx
  101460:	75 30                	jne    101492 <vprintk+0x49>
  101462:	31 c0                	xor    %eax,%eax
  101464:	b9 0d 00 00 00       	mov    $0xd,%ecx
  101469:	89 df                	mov    %ebx,%edi
  10146b:	f3 ab                	rep stos %eax,%es:(%edi)
  10146d:	c6 45 c2 02          	movb   $0x2,-0x3e(%ebp)
  101471:	c7 45 c4 bb 14 10 00 	movl   $0x1014bb,-0x3c(%ebp)
  101478:	56                   	push   %esi
  101479:	52                   	push   %edx
  10147a:	53                   	push   %ebx
  10147b:	e8 4f dd 00 00       	call   10f1cf <__l_vfprintf>
  101480:	83 c4 0c             	add    $0xc,%esp
  101483:	83 7d d0 00          	cmpl   $0x0,-0x30(%ebp)
  101487:	74 2a                	je     1014b3 <vprintk+0x6a>
  101489:	89 d8                	mov    %ebx,%eax
  10148b:	e8 87 ff ff ff       	call   101417 <buf_flush>
  101490:	eb 21                	jmp    1014b3 <vprintk+0x6a>
  101492:	31 c0                	xor    %eax,%eax
  101494:	b9 04 00 00 00       	mov    $0x4,%ecx
  101499:	89 df                	mov    %ebx,%edi
  10149b:	f3 ab                	rep stos %eax,%es:(%edi)
  10149d:	c6 45 c2 02          	movb   $0x2,-0x3e(%ebp)
  1014a1:	c7 45 c4 de 13 10 00 	movl   $0x1013de,-0x3c(%ebp)
  1014a8:	56                   	push   %esi
  1014a9:	52                   	push   %edx
  1014aa:	53                   	push   %ebx
  1014ab:	e8 1f dd 00 00       	call   10f1cf <__l_vfprintf>
  1014b0:	83 c4 0c             	add    $0xc,%esp
  1014b3:	8d 65 f4             	lea    -0xc(%ebp),%esp
  1014b6:	5b                   	pop    %ebx
  1014b7:	5e                   	pop    %esi
  1014b8:	5f                   	pop    %edi
  1014b9:	5d                   	pop    %ebp
  1014ba:	c3                   	ret

001014bb <buf_char_out>:
  1014bb:	55                   	push   %ebp
  1014bc:	89 e5                	mov    %esp,%ebp
  1014be:	8b 55 0c             	mov    0xc(%ebp),%edx
  1014c1:	8a 4d 08             	mov    0x8(%ebp),%cl
  1014c4:	8b 42 10             	mov    0x10(%edx),%eax
  1014c7:	88 4c 02 14          	mov    %cl,0x14(%edx,%eax,1)
  1014cb:	40                   	inc    %eax
  1014cc:	89 42 10             	mov    %eax,0x10(%edx)
  1014cf:	83 f8 20             	cmp    $0x20,%eax
  1014d2:	75 07                	jne    1014db <buf_char_out+0x20>
  1014d4:	89 d0                	mov    %edx,%eax
  1014d6:	e8 3c ff ff ff       	call   101417 <buf_flush>
  1014db:	8b 45 08             	mov    0x8(%ebp),%eax
  1014de:	5d                   	pop    %ebp
  1014df:	c3                   	ret

001014e0 <z_mrsh_k_str_out>:
  1014e0:	55                   	push   %ebp
  1014e1:	89 e5                	mov    %esp,%ebp
  1014e3:	56                   	push   %esi
  1014e4:	53                   	push   %ebx
  1014e5:	a1 a8 48 12 00       	mov    0x1248a8,%eax
  1014ea:	8b 5d 08             	mov    0x8(%ebp),%ebx
  1014ed:	8b 55 20             	mov    0x20(%ebp),%edx
  1014f0:	8b 75 0c             	mov    0xc(%ebp),%esi
  1014f3:	89 90 88 00 00 00    	mov    %edx,0x88(%eax)
  1014f9:	89 d8                	mov    %ebx,%eax
  1014fb:	01 f0                	add    %esi,%eax
  1014fd:	73 2b                	jae    10152a <z_mrsh_k_str_out+0x4a>
  1014ff:	68 cc 3b 11 00       	push   $0x113bcc
  101504:	56                   	push   %esi
  101505:	53                   	push   %ebx
  101506:	68 00 07 11 00       	push   $0x110700
  10150b:	6a 45                	push   $0x45
  10150d:	68 7c 12 11 00       	push   $0x11127c
  101512:	e8 e1 0f 00 00       	call   1024f8 <z_log_minimal_printk>
  101517:	a1 a8 48 12 00       	mov    0x1248a8,%eax
  10151c:	83 c4 18             	add    $0x18,%esp
  10151f:	ff b0 88 00 00 00    	push   0x88(%eax)
  101525:	e8 9c 2c 00 00       	call   1041c6 <arch_syscall_oops>
  10152a:	85 f6                	test   %esi,%esi
  10152c:	74 0b                	je     101539 <z_mrsh_k_str_out+0x59>
  10152e:	89 d8                	mov    %ebx,%eax
  101530:	8d 56 ff             	lea    -0x1(%esi),%edx
  101533:	f7 d0                	not    %eax
  101535:	39 c2                	cmp    %eax,%edx
  101537:	73 c6                	jae    1014ff <z_mrsh_k_str_out+0x1f>
  101539:	6a 00                	push   $0x0
  10153b:	56                   	push   %esi
  10153c:	53                   	push   %ebx
  10153d:	e8 54 22 00 00       	call   103796 <arch_buffer_validate>
  101542:	83 c4 0c             	add    $0xc,%esp
  101545:	85 c0                	test   %eax,%eax
  101547:	75 b6                	jne    1014ff <z_mrsh_k_str_out+0x1f>
  101549:	56                   	push   %esi
  10154a:	53                   	push   %ebx
  10154b:	e8 a1 fe ff ff       	call   1013f1 <z_impl_k_str_out>
  101550:	58                   	pop    %eax
  101551:	a1 a8 48 12 00       	mov    0x1248a8,%eax
  101556:	31 c9                	xor    %ecx,%ecx
  101558:	5a                   	pop    %edx
  101559:	89 88 88 00 00 00    	mov    %ecx,0x88(%eax)
  10155f:	8d 65 f8             	lea    -0x8(%ebp),%esp
  101562:	31 c0                	xor    %eax,%eax
  101564:	5b                   	pop    %ebx
  101565:	5e                   	pop    %esi
  101566:	5d                   	pop    %ebp
  101567:	c3                   	ret

00101568 <printk>:
  101568:	55                   	push   %ebp
  101569:	89 e5                	mov    %esp,%ebp
  10156b:	8d 45 0c             	lea    0xc(%ebp),%eax
  10156e:	50                   	push   %eax
  10156f:	ff 75 08             	push   0x8(%ebp)
  101572:	e8 d2 fe ff ff       	call   101449 <vprintk>
  101577:	58                   	pop    %eax
  101578:	5a                   	pop    %edx
  101579:	c9                   	leave
  10157a:	c3                   	ret

0010157b <z_thread_entry>:
  10157b:	55                   	push   %ebp
  10157c:	89 e5                	mov    %esp,%ebp
  10157e:	56                   	push   %esi
  10157f:	53                   	push   %ebx
  101580:	8c c8                	mov    %cs,%eax
  101582:	83 f8 2b             	cmp    $0x2b,%eax
  101585:	75 09                	jne    101590 <z_thread_entry+0x15>
  101587:	be 39 00 00 00       	mov    $0x39,%esi
  10158c:	cd 80                	int    $0x80
  10158e:	eb 05                	jmp    101595 <z_thread_entry+0x1a>
  101590:	e8 82 91 00 00       	call   10a717 <z_impl_k_sched_current_thread_query>
  101595:	65 8b 1d 00 00 00 00 	mov    %gs:0x0,%ebx
  10159c:	89 83 fc ff ff ff    	mov    %eax,-0x4(%ebx)
  1015a2:	ff 75 14             	push   0x14(%ebp)
  1015a5:	ff 75 10             	push   0x10(%ebp)
  1015a8:	ff 75 0c             	push   0xc(%ebp)
  1015ab:	ff 55 08             	call   *0x8(%ebp)
  1015ae:	83 c4 0c             	add    $0xc,%esp
  1015b1:	8b 83 fc ff ff ff    	mov    -0x4(%ebx),%eax
  1015b7:	8c ca                	mov    %cs,%edx
  1015b9:	83 fa 2b             	cmp    $0x2b,%edx
  1015bc:	75 09                	jne    1015c7 <z_thread_entry+0x4c>
  1015be:	be 44 00 00 00       	mov    $0x44,%esi
  1015c3:	cd 80                	int    $0x80
  1015c5:	eb 07                	jmp    1015ce <assert_post_action>
  1015c7:	50                   	push   %eax
  1015c8:	e8 87 92 00 00       	call   10a854 <z_impl_k_thread_abort>
  1015cd:	58                   	pop    %eax

001015ce <assert_post_action>:
  1015ce:	8c c8                	mov    %cs,%eax
  1015d0:	83 f8 2b             	cmp    $0x2b,%eax
  1015d3:	75 04                	jne    1015d9 <assert_post_action+0xb>
  1015d5:	6a 03                	push   $0x3
  1015d7:	cd 20                	int    $0x20
  1015d9:	6a 04                	push   $0x4
  1015db:	cd 20                	int    $0x20

001015dd <assert_print>:
  1015dd:	55                   	push   %ebp
  1015de:	89 e5                	mov    %esp,%ebp
  1015e0:	8d 45 0c             	lea    0xc(%ebp),%eax
  1015e3:	50                   	push   %eax
  1015e4:	ff 75 08             	push   0x8(%ebp)
  1015e7:	e8 5d fe ff ff       	call   101449 <vprintk>
  1015ec:	58                   	pop    %eax
  1015ed:	5a                   	pop    %edx
  1015ee:	c9                   	leave
  1015ef:	c3                   	ret

001015f0 <check_sys_mutex_addr>:
  1015f0:	55                   	push   %ebp
  1015f1:	83 f8 fb             	cmp    $0xfffffffb,%eax
  1015f4:	89 e5                	mov    %esp,%ebp
  1015f6:	53                   	push   %ebx
  1015f7:	89 c3                	mov    %eax,%ebx
  1015f9:	76 20                	jbe    10161b <check_sys_mutex_addr+0x2b>
  1015fb:	68 c7 12 11 00       	push   $0x1112c7
  101600:	6a 04                	push   $0x4
  101602:	53                   	push   %ebx
  101603:	68 14 07 11 00       	push   $0x110714
  101608:	6a 45                	push   $0x45
  10160a:	68 7c 12 11 00       	push   $0x11127c
  10160f:	e8 e4 0e 00 00       	call   1024f8 <z_log_minimal_printk>
  101614:	83 c4 18             	add    $0x18,%esp
  101617:	b0 01                	mov    $0x1,%al
  101619:	eb 11                	jmp    10162c <check_sys_mutex_addr+0x3c>
  10161b:	6a 01                	push   $0x1
  10161d:	6a 04                	push   $0x4
  10161f:	50                   	push   %eax
  101620:	e8 71 21 00 00       	call   103796 <arch_buffer_validate>
  101625:	83 c4 0c             	add    $0xc,%esp
  101628:	85 c0                	test   %eax,%eax
  10162a:	75 cf                	jne    1015fb <check_sys_mutex_addr+0xb>
  10162c:	8b 5d fc             	mov    -0x4(%ebp),%ebx
  10162f:	c9                   	leave
  101630:	c3                   	ret

00101631 <z_impl_z_sys_mutex_kernel_lock>:
  101631:	55                   	push   %ebp
  101632:	89 e5                	mov    %esp,%ebp
  101634:	57                   	push   %edi
  101635:	56                   	push   %esi
  101636:	53                   	push   %ebx
  101637:	8b 5d 0c             	mov    0xc(%ebp),%ebx
  10163a:	8b 7d 10             	mov    0x10(%ebp),%edi
  10163d:	ff 75 08             	push   0x8(%ebp)
  101640:	e8 f0 bd 00 00       	call   10d435 <k_object_find>
  101645:	5a                   	pop    %edx
  101646:	85 c0                	test   %eax,%eax
  101648:	74 36                	je     101680 <z_impl_z_sys_mutex_kernel_lock+0x4f>
  10164a:	80 78 07 0e          	cmpb   $0xe,0x7(%eax)
  10164e:	75 30                	jne    101680 <z_impl_z_sys_mutex_kernel_lock+0x4f>
  101650:	8b 40 09             	mov    0x9(%eax),%eax
  101653:	85 c0                	test   %eax,%eax
  101655:	74 29                	je     101680 <z_impl_z_sys_mutex_kernel_lock+0x4f>
  101657:	8c ca                	mov    %cs,%edx
  101659:	83 fa 2b             	cmp    $0x2b,%edx
  10165c:	75 0d                	jne    10166b <z_impl_z_sys_mutex_kernel_lock+0x3a>
  10165e:	be 1f 00 00 00       	mov    $0x1f,%esi
  101663:	89 da                	mov    %ebx,%edx
  101665:	89 f9                	mov    %edi,%ecx
  101667:	cd 80                	int    $0x80
  101669:	eb 1a                	jmp    101685 <z_impl_z_sys_mutex_kernel_lock+0x54>
  10166b:	89 5d 0c             	mov    %ebx,0xc(%ebp)
  10166e:	89 7d 10             	mov    %edi,0x10(%ebp)
  101671:	89 45 08             	mov    %eax,0x8(%ebp)
  101674:	8d 65 f4             	lea    -0xc(%ebp),%esp
  101677:	5b                   	pop    %ebx
  101678:	5e                   	pop    %esi
  101679:	5f                   	pop    %edi
  10167a:	5d                   	pop    %ebp
  10167b:	e9 f5 56 00 00       	jmp    106d75 <z_impl_k_mutex_lock>
  101680:	b8 ea ff ff ff       	mov    $0xffffffea,%eax
  101685:	8d 65 f4             	lea    -0xc(%ebp),%esp
  101688:	5b                   	pop    %ebx
  101689:	5e                   	pop    %esi
  10168a:	5f                   	pop    %edi
  10168b:	5d                   	pop    %ebp
  10168c:	c3                   	ret

0010168d <z_mrsh_z_sys_mutex_kernel_lock>:
  10168d:	55                   	push   %ebp
  10168e:	89 e5                	mov    %esp,%ebp
  101690:	57                   	push   %edi
  101691:	56                   	push   %esi
  101692:	a1 a8 48 12 00       	mov    0x1248a8,%eax
  101697:	8b 55 20             	mov    0x20(%ebp),%edx
  10169a:	8b 75 0c             	mov    0xc(%ebp),%esi
  10169d:	8b 7d 10             	mov    0x10(%ebp),%edi
  1016a0:	89 90 88 00 00 00    	mov    %edx,0x88(%eax)
  1016a6:	8b 45 08             	mov    0x8(%ebp),%eax
  1016a9:	e8 42 ff ff ff       	call   1015f0 <check_sys_mutex_addr>
  1016ae:	88 c2                	mov    %al,%dl
  1016b0:	b8 f3 ff ff ff       	mov    $0xfffffff3,%eax
  1016b5:	84 d2                	test   %dl,%dl
  1016b7:	75 0d                	jne    1016c6 <z_mrsh_z_sys_mutex_kernel_lock+0x39>
  1016b9:	57                   	push   %edi
  1016ba:	56                   	push   %esi
  1016bb:	ff 75 08             	push   0x8(%ebp)
  1016be:	e8 6e ff ff ff       	call   101631 <z_impl_z_sys_mutex_kernel_lock>
  1016c3:	83 c4 0c             	add    $0xc,%esp
  1016c6:	8b 15 a8 48 12 00    	mov    0x1248a8,%edx
  1016cc:	31 c9                	xor    %ecx,%ecx
  1016ce:	89 8a 88 00 00 00    	mov    %ecx,0x88(%edx)
  1016d4:	8d 65 f8             	lea    -0x8(%ebp),%esp
  1016d7:	5e                   	pop    %esi
  1016d8:	5f                   	pop    %edi
  1016d9:	5d                   	pop    %ebp
  1016da:	c3                   	ret

001016db <z_impl_z_sys_mutex_kernel_unlock>:
  1016db:	55                   	push   %ebp
  1016dc:	89 e5                	mov    %esp,%ebp
  1016de:	56                   	push   %esi
  1016df:	ff 75 08             	push   0x8(%ebp)
  1016e2:	e8 4e bd 00 00       	call   10d435 <k_object_find>
  1016e7:	5a                   	pop    %edx
  1016e8:	85 c0                	test   %eax,%eax
  1016ea:	74 2f                	je     10171b <z_impl_z_sys_mutex_kernel_unlock+0x40>
  1016ec:	80 78 07 0e          	cmpb   $0xe,0x7(%eax)
  1016f0:	75 29                	jne    10171b <z_impl_z_sys_mutex_kernel_unlock+0x40>
  1016f2:	8b 40 09             	mov    0x9(%eax),%eax
  1016f5:	85 c0                	test   %eax,%eax
  1016f7:	74 22                	je     10171b <z_impl_z_sys_mutex_kernel_unlock+0x40>
  1016f9:	83 78 14 00          	cmpl   $0x0,0x14(%eax)
  1016fd:	74 1c                	je     10171b <z_impl_z_sys_mutex_kernel_unlock+0x40>
  1016ff:	8c ca                	mov    %cs,%edx
  101701:	83 fa 2b             	cmp    $0x2b,%edx
  101704:	75 09                	jne    10170f <z_impl_z_sys_mutex_kernel_unlock+0x34>
  101706:	be 20 00 00 00       	mov    $0x20,%esi
  10170b:	cd 80                	int    $0x80
  10170d:	eb 11                	jmp    101720 <z_impl_z_sys_mutex_kernel_unlock+0x45>
  10170f:	89 45 08             	mov    %eax,0x8(%ebp)
  101712:	8b 75 fc             	mov    -0x4(%ebp),%esi
  101715:	c9                   	leave
  101716:	e9 f1 58 00 00       	jmp    10700c <z_impl_k_mutex_unlock>
  10171b:	b8 ea ff ff ff       	mov    $0xffffffea,%eax
  101720:	8b 75 fc             	mov    -0x4(%ebp),%esi
  101723:	c9                   	leave
  101724:	c3                   	ret

00101725 <z_mrsh_z_sys_mutex_kernel_unlock>:
  101725:	55                   	push   %ebp
  101726:	89 e5                	mov    %esp,%ebp
  101728:	a1 a8 48 12 00       	mov    0x1248a8,%eax
  10172d:	8b 55 20             	mov    0x20(%ebp),%edx
  101730:	89 90 88 00 00 00    	mov    %edx,0x88(%eax)
  101736:	8b 45 08             	mov    0x8(%ebp),%eax
  101739:	e8 b2 fe ff ff       	call   1015f0 <check_sys_mutex_addr>
  10173e:	88 c2                	mov    %al,%dl
  101740:	b8 f3 ff ff ff       	mov    $0xfffffff3,%eax
  101745:	84 d2                	test   %dl,%dl
  101747:	75 09                	jne    101752 <z_mrsh_z_sys_mutex_kernel_unlock+0x2d>
  101749:	ff 75 08             	push   0x8(%ebp)
  10174c:	e8 8a ff ff ff       	call   1016db <z_impl_z_sys_mutex_kernel_unlock>
  101751:	5a                   	pop    %edx
  101752:	8b 15 a8 48 12 00    	mov    0x1248a8,%edx
  101758:	31 c9                	xor    %ecx,%ecx
  10175a:	89 8a 88 00 00 00    	mov    %ecx,0x88(%edx)
  101760:	c9                   	leave
  101761:	c3                   	ret

00101762 <find_and_stack>:
  101762:	55                   	push   %ebp
  101763:	89 e5                	mov    %esp,%ebp
  101765:	57                   	push   %edi
  101766:	56                   	push   %esi
  101767:	89 c7                	mov    %eax,%edi
  101769:	53                   	push   %ebx
  10176a:	89 ce                	mov    %ecx,%esi
  10176c:	53                   	push   %ebx
  10176d:	bb 01 00 00 00       	mov    $0x1,%ebx
  101772:	8b 00                	mov    (%eax),%eax
  101774:	89 01                	mov    %eax,(%ecx)
  101776:	8b 44 9e fc          	mov    -0x4(%esi,%ebx,4),%eax
  10177a:	39 d0                	cmp    %edx,%eax
  10177c:	74 2b                	je     1017a9 <find_and_stack+0x47>
  10177e:	50                   	push   %eax
  10177f:	52                   	push   %edx
  101780:	89 55 f0             	mov    %edx,-0x10(%ebp)
  101783:	ff 57 04             	call   *0x4(%edi)
  101786:	5a                   	pop    %edx
  101787:	59                   	pop    %ecx
  101788:	88 c1                	mov    %al,%cl
  10178a:	84 c9                	test   %cl,%cl
  10178c:	8b 44 9e fc          	mov    -0x4(%esi,%ebx,4),%eax
  101790:	8b 55 f0             	mov    -0x10(%ebp),%edx
  101793:	75 05                	jne    10179a <find_and_stack+0x38>
  101795:	8b 40 04             	mov    0x4(%eax),%eax
  101798:	eb 05                	jmp    10179f <find_and_stack+0x3d>
  10179a:	8b 00                	mov    (%eax),%eax
  10179c:	83 e0 fe             	and    $0xfffffffe,%eax
  10179f:	85 c0                	test   %eax,%eax
  1017a1:	74 06                	je     1017a9 <find_and_stack+0x47>
  1017a3:	89 04 9e             	mov    %eax,(%esi,%ebx,4)
  1017a6:	43                   	inc    %ebx
  1017a7:	eb cd                	jmp    101776 <find_and_stack+0x14>
  1017a9:	8d 65 f4             	lea    -0xc(%ebp),%esp
  1017ac:	89 d8                	mov    %ebx,%eax
  1017ae:	5b                   	pop    %ebx
  1017af:	5e                   	pop    %esi
  1017b0:	5f                   	pop    %edi
  1017b1:	5d                   	pop    %ebp
  1017b2:	c3                   	ret

001017b3 <stack_left_limb>:
  1017b3:	55                   	push   %ebp
  1017b4:	89 c1                	mov    %eax,%ecx
  1017b6:	89 e5                	mov    %esp,%ebp
  1017b8:	53                   	push   %ebx
  1017b9:	89 d0                	mov    %edx,%eax
  1017bb:	8b 5a 08             	mov    0x8(%edx),%ebx
  1017be:	8d 53 01             	lea    0x1(%ebx),%edx
  1017c1:	8b 18                	mov    (%eax),%ebx
  1017c3:	89 50 08             	mov    %edx,0x8(%eax)
  1017c6:	89 0c 93             	mov    %ecx,(%ebx,%edx,4)
  1017c9:	8b 50 08             	mov    0x8(%eax),%edx
  1017cc:	8b 58 04             	mov    0x4(%eax),%ebx
  1017cf:	c6 04 13 00          	movb   $0x0,(%ebx,%edx,1)
  1017d3:	8b 11                	mov    (%ecx),%edx
  1017d5:	83 e2 fe             	and    $0xfffffffe,%edx
  1017d8:	8b 48 08             	mov    0x8(%eax),%ecx
  1017db:	8b 18                	mov    (%eax),%ebx
  1017dd:	85 d2                	test   %edx,%edx
  1017df:	74 15                	je     1017f6 <stack_left_limb+0x43>
  1017e1:	41                   	inc    %ecx
  1017e2:	89 48 08             	mov    %ecx,0x8(%eax)
  1017e5:	89 14 8b             	mov    %edx,(%ebx,%ecx,4)
  1017e8:	8b 58 04             	mov    0x4(%eax),%ebx
  1017eb:	8b 48 08             	mov    0x8(%eax),%ecx
  1017ee:	c6 04 0b 01          	movb   $0x1,(%ebx,%ecx,1)
  1017f2:	8b 12                	mov    (%edx),%edx
  1017f4:	eb df                	jmp    1017d5 <stack_left_limb+0x22>
  1017f6:	8b 04 8b             	mov    (%ebx,%ecx,4),%eax
  1017f9:	5b                   	pop    %ebx
  1017fa:	5d                   	pop    %ebp
  1017fb:	c3                   	ret

001017fc <set_child>:
  1017fc:	84 d2                	test   %dl,%dl
  1017fe:	74 04                	je     101804 <set_child+0x8>
  101800:	89 48 04             	mov    %ecx,0x4(%eax)
  101803:	c3                   	ret
  101804:	8b 10                	mov    (%eax),%edx
  101806:	83 e2 01             	and    $0x1,%edx
  101809:	09 d1                	or     %edx,%ecx
  10180b:	89 08                	mov    %ecx,(%eax)
  10180d:	c3                   	ret

0010180e <rotate>:
  10180e:	55                   	push   %ebp
  10180f:	8d 0c 95 f8 ff ff ff 	lea    -0x8(,%edx,4),%ecx
  101816:	89 e5                	mov    %esp,%ebp
  101818:	57                   	push   %edi
  101819:	56                   	push   %esi
  10181a:	8d 34 08             	lea    (%eax,%ecx,1),%esi
  10181d:	53                   	push   %ebx
  10181e:	8d 5c 08 04          	lea    0x4(%eax,%ecx,1),%ebx
  101822:	83 ec 14             	sub    $0x14,%esp
  101825:	89 5d e0             	mov    %ebx,-0x20(%ebp)
  101828:	8b 1b                	mov    (%ebx),%ebx
  10182a:	89 75 e4             	mov    %esi,-0x1c(%ebp)
  10182d:	8b 36                	mov    (%esi),%esi
  10182f:	8b 7b 04             	mov    0x4(%ebx),%edi
  101832:	89 7d ec             	mov    %edi,-0x14(%ebp)
  101835:	8b 3b                	mov    (%ebx),%edi
  101837:	83 e7 fe             	and    $0xfffffffe,%edi
  10183a:	3b 5e 04             	cmp    0x4(%esi),%ebx
  10183d:	89 7d f0             	mov    %edi,-0x10(%ebp)
  101840:	74 1a                	je     10185c <rotate+0x4e>
  101842:	89 7d e8             	mov    %edi,-0x18(%ebp)
  101845:	8b 7d ec             	mov    -0x14(%ebp),%edi
  101848:	89 7d f0             	mov    %edi,-0x10(%ebp)
  10184b:	8b 7d e8             	mov    -0x18(%ebp),%edi
  10184e:	89 7d ec             	mov    %edi,-0x14(%ebp)
  101851:	c7 45 e8 01 00 00 00 	movl   $0x1,-0x18(%ebp)
  101858:	31 ff                	xor    %edi,%edi
  10185a:	eb 0c                	jmp    101868 <rotate+0x5a>
  10185c:	bf 01 00 00 00       	mov    $0x1,%edi
  101861:	c7 45 e8 00 00 00 00 	movl   $0x0,-0x18(%ebp)
  101868:	83 fa 02             	cmp    $0x2,%edx
  10186b:	7e 13                	jle    101880 <rotate+0x72>
  10186d:	8b 44 08 fc          	mov    -0x4(%eax,%ecx,1),%eax
  101871:	31 d2                	xor    %edx,%edx
  101873:	89 d9                	mov    %ebx,%ecx
  101875:	39 70 04             	cmp    %esi,0x4(%eax)
  101878:	0f 94 c2             	sete   %dl
  10187b:	e8 7c ff ff ff       	call   1017fc <set_child>
  101880:	89 f8                	mov    %edi,%eax
  101882:	8b 4d ec             	mov    -0x14(%ebp),%ecx
  101885:	0f b6 f8             	movzbl %al,%edi
  101888:	89 fa                	mov    %edi,%edx
  10188a:	89 d8                	mov    %ebx,%eax
  10188c:	e8 6b ff ff ff       	call   1017fc <set_child>
  101891:	89 f1                	mov    %esi,%ecx
  101893:	8b 55 e8             	mov    -0x18(%ebp),%edx
  101896:	e8 61 ff ff ff       	call   1017fc <set_child>
  10189b:	89 f0                	mov    %esi,%eax
  10189d:	8b 4d f0             	mov    -0x10(%ebp),%ecx
  1018a0:	89 fa                	mov    %edi,%edx
  1018a2:	e8 55 ff ff ff       	call   1017fc <set_child>
  1018a7:	8b 45 e4             	mov    -0x1c(%ebp),%eax
  1018aa:	89 18                	mov    %ebx,(%eax)
  1018ac:	8b 45 e0             	mov    -0x20(%ebp),%eax
  1018af:	89 30                	mov    %esi,(%eax)
  1018b1:	83 c4 14             	add    $0x14,%esp
  1018b4:	5b                   	pop    %ebx
  1018b5:	5e                   	pop    %esi
  1018b6:	5f                   	pop    %edi
  1018b7:	5d                   	pop    %ebp
  1018b8:	c3                   	ret

001018b9 <z_rb_get_minmax>:
  1018b9:	55                   	push   %ebp
  1018ba:	89 e5                	mov    %esp,%ebp
  1018bc:	8b 45 08             	mov    0x8(%ebp),%eax
  1018bf:	8a 4d 0c             	mov    0xc(%ebp),%cl
  1018c2:	8b 00                	mov    (%eax),%eax
  1018c4:	85 c0                	test   %eax,%eax
  1018c6:	74 16                	je     1018de <z_rb_get_minmax+0x25>
  1018c8:	84 c9                	test   %cl,%cl
  1018ca:	74 05                	je     1018d1 <z_rb_get_minmax+0x18>
  1018cc:	8b 50 04             	mov    0x4(%eax),%edx
  1018cf:	eb 05                	jmp    1018d6 <z_rb_get_minmax+0x1d>
  1018d1:	8b 10                	mov    (%eax),%edx
  1018d3:	83 e2 fe             	and    $0xfffffffe,%edx
  1018d6:	85 d2                	test   %edx,%edx
  1018d8:	74 04                	je     1018de <z_rb_get_minmax+0x25>
  1018da:	89 d0                	mov    %edx,%eax
  1018dc:	eb ea                	jmp    1018c8 <z_rb_get_minmax+0xf>
  1018de:	5d                   	pop    %ebp
  1018df:	c3                   	ret

001018e0 <rb_insert>:
  1018e0:	55                   	push   %ebp
  1018e1:	89 e5                	mov    %esp,%ebp
  1018e3:	57                   	push   %edi
  1018e4:	56                   	push   %esi
  1018e5:	31 f6                	xor    %esi,%esi
  1018e7:	53                   	push   %ebx
  1018e8:	83 ec 18             	sub    $0x18,%esp
  1018eb:	8b 5d 0c             	mov    0xc(%ebp),%ebx
  1018ee:	8b 7d 08             	mov    0x8(%ebp),%edi
  1018f1:	83 23 01             	andl   $0x1,(%ebx)
  1018f4:	89 73 04             	mov    %esi,0x4(%ebx)
  1018f7:	83 3f 00             	cmpl   $0x0,(%edi)
  1018fa:	75 11                	jne    10190d <rb_insert+0x2d>
  1018fc:	89 1f                	mov    %ebx,(%edi)
  1018fe:	c7 47 08 01 00 00 00 	movl   $0x1,0x8(%edi)
  101905:	83 0b 01             	orl    $0x1,(%ebx)
  101908:	e9 04 01 00 00       	jmp    101a11 <rb_insert+0x131>
  10190d:	89 e0                	mov    %esp,%eax
  10190f:	89 da                	mov    %ebx,%edx
  101911:	89 45 dc             	mov    %eax,-0x24(%ebp)
  101914:	8b 47 08             	mov    0x8(%edi),%eax
  101917:	8d 04 85 04 00 00 00 	lea    0x4(,%eax,4),%eax
  10191e:	29 c4                	sub    %eax,%esp
  101920:	8d 44 24 03          	lea    0x3(%esp),%eax
  101924:	89 c1                	mov    %eax,%ecx
  101926:	83 e0 fc             	and    $0xfffffffc,%eax
  101929:	c1 e9 02             	shr    $0x2,%ecx
  10192c:	89 45 f0             	mov    %eax,-0x10(%ebp)
  10192f:	89 4d e4             	mov    %ecx,-0x1c(%ebp)
  101932:	89 c1                	mov    %eax,%ecx
  101934:	89 f8                	mov    %edi,%eax
  101936:	e8 27 fe ff ff       	call   101762 <find_and_stack>
  10193b:	89 c6                	mov    %eax,%esi
  10193d:	8b 45 f0             	mov    -0x10(%ebp),%eax
  101940:	8b 44 b0 fc          	mov    -0x4(%eax,%esi,4),%eax
  101944:	89 45 ec             	mov    %eax,-0x14(%ebp)
  101947:	50                   	push   %eax
  101948:	53                   	push   %ebx
  101949:	ff 57 04             	call   *0x4(%edi)
  10194c:	5a                   	pop    %edx
  10194d:	83 f0 01             	xor    $0x1,%eax
  101950:	59                   	pop    %ecx
  101951:	89 d9                	mov    %ebx,%ecx
  101953:	0f b6 d0             	movzbl %al,%edx
  101956:	8b 45 ec             	mov    -0x14(%ebp),%eax
  101959:	e8 9e fe ff ff       	call   1017fc <set_child>
  10195e:	8b 45 f0             	mov    -0x10(%ebp),%eax
  101961:	89 1c b0             	mov    %ebx,(%eax,%esi,4)
  101964:	8d 46 01             	lea    0x1(%esi),%eax
  101967:	89 45 ec             	mov    %eax,-0x14(%ebp)
  10196a:	8b 45 f0             	mov    -0x10(%ebp),%eax
  10196d:	83 23 fe             	andl   $0xfffffffe,(%ebx)
  101970:	8d 5c b0 fc          	lea    -0x4(%eax,%esi,4),%ebx
  101974:	8b 75 ec             	mov    -0x14(%ebp),%esi
  101977:	83 fe 01             	cmp    $0x1,%esi
  10197a:	7e 6e                	jle    1019ea <rb_insert+0x10a>
  10197c:	8b 13                	mov    (%ebx),%edx
  10197e:	8b 43 04             	mov    0x4(%ebx),%eax
  101981:	89 45 e0             	mov    %eax,-0x20(%ebp)
  101984:	f6 02 01             	testb  $0x1,(%edx)
  101987:	75 6e                	jne    1019f7 <rb_insert+0x117>
  101989:	8b 4b fc             	mov    -0x4(%ebx),%ecx
  10198c:	c6 45 eb 00          	movb   $0x0,-0x15(%ebp)
  101990:	8b 41 04             	mov    0x4(%ecx),%eax
  101993:	39 c2                	cmp    %eax,%edx
  101995:	75 09                	jne    1019a0 <rb_insert+0xc0>
  101997:	8b 01                	mov    (%ecx),%eax
  101999:	c6 45 eb 01          	movb   $0x1,-0x15(%ebp)
  10199d:	83 e0 fe             	and    $0xfffffffe,%eax
  1019a0:	85 c0                	test   %eax,%eax
  1019a2:	74 16                	je     1019ba <rb_insert+0xda>
  1019a4:	f6 00 01             	testb  $0x1,(%eax)
  1019a7:	75 11                	jne    1019ba <rb_insert+0xda>
  1019a9:	83 21 fe             	andl   $0xfffffffe,(%ecx)
  1019ac:	83 eb 08             	sub    $0x8,%ebx
  1019af:	83 0a 01             	orl    $0x1,(%edx)
  1019b2:	83 ee 02             	sub    $0x2,%esi
  1019b5:	83 08 01             	orl    $0x1,(%eax)
  1019b8:	eb bd                	jmp    101977 <rb_insert+0x97>
  1019ba:	8b 45 e0             	mov    -0x20(%ebp),%eax
  1019bd:	39 42 04             	cmp    %eax,0x4(%edx)
  1019c0:	0f 94 c0             	sete   %al
  1019c3:	3a 45 eb             	cmp    -0x15(%ebp),%al
  1019c6:	74 0a                	je     1019d2 <rb_insert+0xf2>
  1019c8:	89 f2                	mov    %esi,%edx
  1019ca:	8b 45 f0             	mov    -0x10(%ebp),%eax
  1019cd:	e8 3c fe ff ff       	call   10180e <rotate>
  1019d2:	8b 45 f0             	mov    -0x10(%ebp),%eax
  1019d5:	8d 56 ff             	lea    -0x1(%esi),%edx
  1019d8:	e8 31 fe ff ff       	call   10180e <rotate>
  1019dd:	8b 43 fc             	mov    -0x4(%ebx),%eax
  1019e0:	83 08 01             	orl    $0x1,(%eax)
  1019e3:	8b 03                	mov    (%ebx),%eax
  1019e5:	83 20 fe             	andl   $0xfffffffe,(%eax)
  1019e8:	eb 0d                	jmp    1019f7 <rb_insert+0x117>
  1019ea:	8b 45 e4             	mov    -0x1c(%ebp),%eax
  1019ed:	8b 04 85 00 00 00 00 	mov    0x0(,%eax,4),%eax
  1019f4:	83 08 01             	orl    $0x1,(%eax)
  1019f7:	8b 45 ec             	mov    -0x14(%ebp),%eax
  1019fa:	39 47 08             	cmp    %eax,0x8(%edi)
  1019fd:	7d 03                	jge    101a02 <rb_insert+0x122>
  1019ff:	89 47 08             	mov    %eax,0x8(%edi)
  101a02:	8b 45 e4             	mov    -0x1c(%ebp),%eax
  101a05:	8b 04 85 00 00 00 00 	mov    0x0(,%eax,4),%eax
  101a0c:	89 07                	mov    %eax,(%edi)
  101a0e:	8b 65 dc             	mov    -0x24(%ebp),%esp
  101a11:	8d 65 f4             	lea    -0xc(%ebp),%esp
  101a14:	5b                   	pop    %ebx
  101a15:	5e                   	pop    %esi
  101a16:	5f                   	pop    %edi
  101a17:	5d                   	pop    %ebp
  101a18:	c3                   	ret

00101a19 <rb_remove>:
  101a19:	55                   	push   %ebp
  101a1a:	89 e5                	mov    %esp,%ebp
  101a1c:	57                   	push   %edi
  101a1d:	56                   	push   %esi
  101a1e:	53                   	push   %ebx
  101a1f:	83 ec 20             	sub    $0x20,%esp
  101a22:	8b 45 08             	mov    0x8(%ebp),%eax
  101a25:	89 65 dc             	mov    %esp,-0x24(%ebp)
  101a28:	8b 7d 0c             	mov    0xc(%ebp),%edi
  101a2b:	8b 40 08             	mov    0x8(%eax),%eax
  101a2e:	89 fa                	mov    %edi,%edx
  101a30:	8d 04 85 04 00 00 00 	lea    0x4(,%eax,4),%eax
  101a37:	29 c4                	sub    %eax,%esp
  101a39:	8d 44 24 03          	lea    0x3(%esp),%eax
  101a3d:	89 c6                	mov    %eax,%esi
  101a3f:	83 e0 fc             	and    $0xfffffffc,%eax
  101a42:	c1 ee 02             	shr    $0x2,%esi
  101a45:	89 45 ec             	mov    %eax,-0x14(%ebp)
  101a48:	89 c1                	mov    %eax,%ecx
  101a4a:	8b 45 08             	mov    0x8(%ebp),%eax
  101a4d:	89 75 d4             	mov    %esi,-0x2c(%ebp)
  101a50:	e8 0d fd ff ff       	call   101762 <find_and_stack>
  101a55:	89 45 f0             	mov    %eax,-0x10(%ebp)
  101a58:	8b 45 ec             	mov    -0x14(%ebp),%eax
  101a5b:	8b 75 f0             	mov    -0x10(%ebp),%esi
  101a5e:	8d 34 b0             	lea    (%eax,%esi,4),%esi
  101a61:	39 7e fc             	cmp    %edi,-0x4(%esi)
  101a64:	0f 85 75 03 00 00    	jne    101ddf <rb_remove+0x3c6>
  101a6a:	8b 1f                	mov    (%edi),%ebx
  101a6c:	83 fb 01             	cmp    $0x1,%ebx
  101a6f:	0f 86 df 00 00 00    	jbe    101b54 <rb_remove+0x13b>
  101a75:	83 7f 04 00          	cmpl   $0x0,0x4(%edi)
  101a79:	0f 84 d5 00 00 00    	je     101b54 <rb_remove+0x13b>
  101a7f:	31 c0                	xor    %eax,%eax
  101a81:	83 7d f0 01          	cmpl   $0x1,-0x10(%ebp)
  101a85:	7e 03                	jle    101a8a <rb_remove+0x71>
  101a87:	8b 46 f8             	mov    -0x8(%esi),%eax
  101a8a:	ff 45 f0             	incl   -0x10(%ebp)
  101a8d:	83 e3 fe             	and    $0xfffffffe,%ebx
  101a90:	89 1e                	mov    %ebx,(%esi)
  101a92:	8b 53 04             	mov    0x4(%ebx),%edx
  101a95:	8b 4d ec             	mov    -0x14(%ebp),%ecx
  101a98:	85 d2                	test   %edx,%edx
  101a9a:	74 0d                	je     101aa9 <rb_remove+0x90>
  101a9c:	8b 5d f0             	mov    -0x10(%ebp),%ebx
  101a9f:	ff 45 f0             	incl   -0x10(%ebp)
  101aa2:	89 14 99             	mov    %edx,(%ecx,%ebx,4)
  101aa5:	89 d3                	mov    %edx,%ebx
  101aa7:	eb e9                	jmp    101a92 <rb_remove+0x79>
  101aa9:	8b 55 f0             	mov    -0x10(%ebp),%edx
  101aac:	85 c0                	test   %eax,%eax
  101aae:	8d 0c 91             	lea    (%ecx,%edx,4),%ecx
  101ab1:	89 4d e4             	mov    %ecx,-0x1c(%ebp)
  101ab4:	8b 49 f8             	mov    -0x8(%ecx),%ecx
  101ab7:	89 4d e8             	mov    %ecx,-0x18(%ebp)
  101aba:	74 11                	je     101acd <rb_remove+0xb4>
  101abc:	31 d2                	xor    %edx,%edx
  101abe:	89 d9                	mov    %ebx,%ecx
  101ac0:	39 78 04             	cmp    %edi,0x4(%eax)
  101ac3:	0f 94 c2             	sete   %dl
  101ac6:	e8 31 fd ff ff       	call   1017fc <set_child>
  101acb:	eb 05                	jmp    101ad2 <rb_remove+0xb9>
  101acd:	8b 45 08             	mov    0x8(%ebp),%eax
  101ad0:	89 18                	mov    %ebx,(%eax)
  101ad2:	8b 45 e8             	mov    -0x18(%ebp),%eax
  101ad5:	39 c7                	cmp    %eax,%edi
  101ad7:	75 17                	jne    101af0 <rb_remove+0xd7>
  101ad9:	8b 07                	mov    (%edi),%eax
  101adb:	8b 13                	mov    (%ebx),%edx
  101add:	83 e0 01             	and    $0x1,%eax
  101ae0:	83 e2 fe             	and    $0xfffffffe,%edx
  101ae3:	09 d0                	or     %edx,%eax
  101ae5:	89 07                	mov    %eax,(%edi)
  101ae7:	8b 03                	mov    (%ebx),%eax
  101ae9:	83 e0 01             	and    $0x1,%eax
  101aec:	09 f8                	or     %edi,%eax
  101aee:	eb 2c                	jmp    101b1c <rb_remove+0x103>
  101af0:	8b 45 e8             	mov    -0x18(%ebp),%eax
  101af3:	31 d2                	xor    %edx,%edx
  101af5:	89 f9                	mov    %edi,%ecx
  101af7:	39 58 04             	cmp    %ebx,0x4(%eax)
  101afa:	0f 94 c2             	sete   %dl
  101afd:	e8 fa fc ff ff       	call   1017fc <set_child>
  101b02:	8b 17                	mov    (%edi),%edx
  101b04:	8b 03                	mov    (%ebx),%eax
  101b06:	89 d1                	mov    %edx,%ecx
  101b08:	83 e0 fe             	and    $0xfffffffe,%eax
  101b0b:	83 e1 01             	and    $0x1,%ecx
  101b0e:	09 c8                	or     %ecx,%eax
  101b10:	83 e2 fe             	and    $0xfffffffe,%edx
  101b13:	89 07                	mov    %eax,(%edi)
  101b15:	8b 03                	mov    (%ebx),%eax
  101b17:	83 e0 01             	and    $0x1,%eax
  101b1a:	09 d0                	or     %edx,%eax
  101b1c:	89 03                	mov    %eax,(%ebx)
  101b1e:	8b 4d e4             	mov    -0x1c(%ebp),%ecx
  101b21:	8b 47 04             	mov    0x4(%edi),%eax
  101b24:	89 43 04             	mov    %eax,0x4(%ebx)
  101b27:	8b 51 fc             	mov    -0x4(%ecx),%edx
  101b2a:	31 c0                	xor    %eax,%eax
  101b2c:	89 47 04             	mov    %eax,0x4(%edi)
  101b2f:	8b 46 fc             	mov    -0x4(%esi),%eax
  101b32:	89 56 fc             	mov    %edx,-0x4(%esi)
  101b35:	8b 17                	mov    (%edi),%edx
  101b37:	89 41 fc             	mov    %eax,-0x4(%ecx)
  101b3a:	8b 03                	mov    (%ebx),%eax
  101b3c:	89 d1                	mov    %edx,%ecx
  101b3e:	83 e0 01             	and    $0x1,%eax
  101b41:	83 e1 fe             	and    $0xfffffffe,%ecx
  101b44:	83 e2 01             	and    $0x1,%edx
  101b47:	09 c8                	or     %ecx,%eax
  101b49:	89 07                	mov    %eax,(%edi)
  101b4b:	8b 03                	mov    (%ebx),%eax
  101b4d:	83 e0 fe             	and    $0xfffffffe,%eax
  101b50:	09 d0                	or     %edx,%eax
  101b52:	89 03                	mov    %eax,(%ebx)
  101b54:	8b 17                	mov    (%edi),%edx
  101b56:	83 fa 01             	cmp    $0x1,%edx
  101b59:	76 12                	jbe    101b6d <rb_remove+0x154>
  101b5b:	89 d3                	mov    %edx,%ebx
  101b5d:	83 e3 fe             	and    $0xfffffffe,%ebx
  101b60:	83 7d f0 01          	cmpl   $0x1,-0x10(%ebp)
  101b64:	7f 2e                	jg     101b94 <rb_remove+0x17b>
  101b66:	8b 45 08             	mov    0x8(%ebp),%eax
  101b69:	89 18                	mov    %ebx,(%eax)
  101b6b:	eb 12                	jmp    101b7f <rb_remove+0x166>
  101b6d:	83 7d f0 01          	cmpl   $0x1,-0x10(%ebp)
  101b71:	8b 5f 04             	mov    0x4(%edi),%ebx
  101b74:	7f 2d                	jg     101ba3 <rb_remove+0x18a>
  101b76:	8b 45 08             	mov    0x8(%ebp),%eax
  101b79:	85 db                	test   %ebx,%ebx
  101b7b:	89 18                	mov    %ebx,(%eax)
  101b7d:	74 08                	je     101b87 <rb_remove+0x16e>
  101b7f:	83 0b 01             	orl    $0x1,(%ebx)
  101b82:	e9 58 02 00 00       	jmp    101ddf <rb_remove+0x3c6>
  101b87:	8b 45 08             	mov    0x8(%ebp),%eax
  101b8a:	31 c9                	xor    %ecx,%ecx
  101b8c:	89 48 08             	mov    %ecx,0x8(%eax)
  101b8f:	e9 4b 02 00 00       	jmp    101ddf <rb_remove+0x3c6>
  101b94:	8b 45 ec             	mov    -0x14(%ebp),%eax
  101b97:	8b 75 f0             	mov    -0x10(%ebp),%esi
  101b9a:	8b 44 b0 f8          	mov    -0x8(%eax,%esi,4),%eax
  101b9e:	e9 cc 01 00 00       	jmp    101d6f <rb_remove+0x356>
  101ba3:	8b 45 ec             	mov    -0x14(%ebp),%eax
  101ba6:	8b 75 f0             	mov    -0x10(%ebp),%esi
  101ba9:	85 db                	test   %ebx,%ebx
  101bab:	8b 44 b0 f8          	mov    -0x8(%eax,%esi,4),%eax
  101baf:	0f 85 ba 01 00 00    	jne    101d6f <rb_remove+0x356>
  101bb5:	80 e2 01             	and    $0x1,%dl
  101bb8:	0f 84 a0 01 00 00    	je     101d5e <rb_remove+0x345>
  101bbe:	8b 45 f0             	mov    -0x10(%ebp),%eax
  101bc1:	c6 45 e4 00          	movb   $0x0,-0x1c(%ebp)
  101bc5:	8d 0c 85 fc ff ff ff 	lea    -0x4(,%eax,4),%ecx
  101bcc:	8b 45 ec             	mov    -0x14(%ebp),%eax
  101bcf:	8d 34 08             	lea    (%eax,%ecx,1),%esi
  101bd2:	8b 06                	mov    (%esi),%eax
  101bd4:	89 45 e0             	mov    %eax,-0x20(%ebp)
  101bd7:	8b 45 ec             	mov    -0x14(%ebp),%eax
  101bda:	8b 44 08 fc          	mov    -0x4(%eax,%ecx,1),%eax
  101bde:	89 45 e8             	mov    %eax,-0x18(%ebp)
  101be1:	8b 58 04             	mov    0x4(%eax),%ebx
  101be4:	39 5d e0             	cmp    %ebx,-0x20(%ebp)
  101be7:	75 0e                	jne    101bf7 <rb_remove+0x1de>
  101be9:	8b 00                	mov    (%eax),%eax
  101beb:	89 c3                	mov    %eax,%ebx
  101bed:	89 45 e4             	mov    %eax,-0x1c(%ebp)
  101bf0:	83 e3 fe             	and    $0xfffffffe,%ebx
  101bf3:	c6 45 e4 01          	movb   $0x1,-0x1c(%ebp)
  101bf7:	f6 03 01             	testb  $0x1,(%ebx)
  101bfa:	75 46                	jne    101c42 <rb_remove+0x229>
  101bfc:	89 1e                	mov    %ebx,(%esi)
  101bfe:	8b 45 ec             	mov    -0x14(%ebp),%eax
  101c01:	8b 55 f0             	mov    -0x10(%ebp),%edx
  101c04:	89 4d d8             	mov    %ecx,-0x28(%ebp)
  101c07:	e8 02 fc ff ff       	call   10180e <rotate>
  101c0c:	8b 45 e8             	mov    -0x18(%ebp),%eax
  101c0f:	83 20 fe             	andl   $0xfffffffe,(%eax)
  101c12:	8b 4d d8             	mov    -0x28(%ebp),%ecx
  101c15:	8b 45 ec             	mov    -0x14(%ebp),%eax
  101c18:	83 0b 01             	orl    $0x1,(%ebx)
  101c1b:	8b 5d e0             	mov    -0x20(%ebp),%ebx
  101c1e:	ff 45 f0             	incl   -0x10(%ebp)
  101c21:	89 5c 08 04          	mov    %ebx,0x4(%eax,%ecx,1)
  101c25:	8b 06                	mov    (%esi),%eax
  101c27:	80 7d e4 00          	cmpb   $0x0,-0x1c(%ebp)
  101c2b:	89 45 e8             	mov    %eax,-0x18(%ebp)
  101c2e:	75 05                	jne    101c35 <rb_remove+0x21c>
  101c30:	8b 58 04             	mov    0x4(%eax),%ebx
  101c33:	eb 0d                	jmp    101c42 <rb_remove+0x229>
  101c35:	8b 45 e8             	mov    -0x18(%ebp),%eax
  101c38:	8b 00                	mov    (%eax),%eax
  101c3a:	89 c3                	mov    %eax,%ebx
  101c3c:	89 45 d8             	mov    %eax,-0x28(%ebp)
  101c3f:	83 e3 fe             	and    $0xfffffffe,%ebx
  101c42:	8b 13                	mov    (%ebx),%edx
  101c44:	8b 73 04             	mov    0x4(%ebx),%esi
  101c47:	89 d0                	mov    %edx,%eax
  101c49:	83 e0 fe             	and    $0xfffffffe,%eax
  101c4c:	83 fa 01             	cmp    $0x1,%edx
  101c4f:	76 05                	jbe    101c56 <rb_remove+0x23d>
  101c51:	f6 00 01             	testb  $0x1,(%eax)
  101c54:	74 51                	je     101ca7 <rb_remove+0x28e>
  101c56:	85 f6                	test   %esi,%esi
  101c58:	74 05                	je     101c5f <rb_remove+0x246>
  101c5a:	f6 06 01             	testb  $0x1,(%esi)
  101c5d:	74 40                	je     101c9f <rb_remove+0x286>
  101c5f:	8b 45 e0             	mov    -0x20(%ebp),%eax
  101c62:	39 c7                	cmp    %eax,%edi
  101c64:	75 0e                	jne    101c74 <rb_remove+0x25b>
  101c66:	0f b6 55 e4          	movzbl -0x1c(%ebp),%edx
  101c6a:	31 c9                	xor    %ecx,%ecx
  101c6c:	8b 45 e8             	mov    -0x18(%ebp),%eax
  101c6f:	e8 88 fb ff ff       	call   1017fc <set_child>
  101c74:	83 23 fe             	andl   $0xfffffffe,(%ebx)
  101c77:	8b 45 e8             	mov    -0x18(%ebp),%eax
  101c7a:	8b 00                	mov    (%eax),%eax
  101c7c:	a8 01                	test   $0x1,%al
  101c7e:	74 12                	je     101c92 <rb_remove+0x279>
  101c80:	ff 4d f0             	decl   -0x10(%ebp)
  101c83:	83 7d f0 01          	cmpl   $0x1,-0x10(%ebp)
  101c87:	0f 85 31 ff ff ff    	jne    101bbe <rb_remove+0x1a5>
  101c8d:	e9 3e 01 00 00       	jmp    101dd0 <rb_remove+0x3b7>
  101c92:	8b 7d e8             	mov    -0x18(%ebp),%edi
  101c95:	83 c8 01             	or     $0x1,%eax
  101c98:	89 07                	mov    %eax,(%edi)
  101c9a:	e9 31 01 00 00       	jmp    101dd0 <rb_remove+0x3b7>
  101c9f:	80 7d e4 00          	cmpb   $0x0,-0x1c(%ebp)
  101ca3:	75 17                	jne    101cbc <rb_remove+0x2a3>
  101ca5:	eb 0a                	jmp    101cb1 <rb_remove+0x298>
  101ca7:	80 7d e4 00          	cmpb   $0x0,-0x1c(%ebp)
  101cab:	75 14                	jne    101cc1 <rb_remove+0x2a8>
  101cad:	85 f6                	test   %esi,%esi
  101caf:	74 1b                	je     101ccc <rb_remove+0x2b3>
  101cb1:	f6 06 01             	testb  $0x1,(%esi)
  101cb4:	c6 45 e4 00          	movb   $0x0,-0x1c(%ebp)
  101cb8:	74 64                	je     101d1e <rb_remove+0x305>
  101cba:	eb 10                	jmp    101ccc <rb_remove+0x2b3>
  101cbc:	83 fa 01             	cmp    $0x1,%edx
  101cbf:	76 0d                	jbe    101cce <rb_remove+0x2b5>
  101cc1:	f6 00 01             	testb  $0x1,(%eax)
  101cc4:	74 52                	je     101d18 <rb_remove+0x2ff>
  101cc6:	c6 45 e4 01          	movb   $0x1,-0x1c(%ebp)
  101cca:	eb 02                	jmp    101cce <rb_remove+0x2b5>
  101ccc:	89 c6                	mov    %eax,%esi
  101cce:	8b 45 f0             	mov    -0x10(%ebp),%eax
  101cd1:	8b 4d ec             	mov    -0x14(%ebp),%ecx
  101cd4:	8d 04 85 fc ff ff ff 	lea    -0x4(,%eax,4),%eax
  101cdb:	01 c1                	add    %eax,%ecx
  101cdd:	89 4d d8             	mov    %ecx,-0x28(%ebp)
  101ce0:	89 19                	mov    %ebx,(%ecx)
  101ce2:	8b 4d ec             	mov    -0x14(%ebp),%ecx
  101ce5:	89 74 01 04          	mov    %esi,0x4(%ecx,%eax,1)
  101ce9:	8b 45 f0             	mov    -0x10(%ebp),%eax
  101cec:	8d 50 01             	lea    0x1(%eax),%edx
  101cef:	89 c8                	mov    %ecx,%eax
  101cf1:	e8 18 fb ff ff       	call   10180e <rotate>
  101cf6:	83 23 fe             	andl   $0xfffffffe,(%ebx)
  101cf9:	8b 4d d8             	mov    -0x28(%ebp),%ecx
  101cfc:	83 0e 01             	orl    $0x1,(%esi)
  101cff:	8b 19                	mov    (%ecx),%ebx
  101d01:	80 7d e4 00          	cmpb   $0x0,-0x1c(%ebp)
  101d05:	75 05                	jne    101d0c <rb_remove+0x2f3>
  101d07:	8b 73 04             	mov    0x4(%ebx),%esi
  101d0a:	eb 05                	jmp    101d11 <rb_remove+0x2f8>
  101d0c:	8b 33                	mov    (%ebx),%esi
  101d0e:	83 e6 fe             	and    $0xfffffffe,%esi
  101d11:	8b 45 e0             	mov    -0x20(%ebp),%eax
  101d14:	89 01                	mov    %eax,(%ecx)
  101d16:	eb 06                	jmp    101d1e <rb_remove+0x305>
  101d18:	89 c6                	mov    %eax,%esi
  101d1a:	c6 45 e4 01          	movb   $0x1,-0x1c(%ebp)
  101d1e:	8b 45 e8             	mov    -0x18(%ebp),%eax
  101d21:	8b 13                	mov    (%ebx),%edx
  101d23:	83 e2 fe             	and    $0xfffffffe,%edx
  101d26:	8b 00                	mov    (%eax),%eax
  101d28:	89 45 d8             	mov    %eax,-0x28(%ebp)
  101d2b:	83 e0 01             	and    $0x1,%eax
  101d2e:	09 d0                	or     %edx,%eax
  101d30:	89 03                	mov    %eax,(%ebx)
  101d32:	8b 45 e8             	mov    -0x18(%ebp),%eax
  101d35:	83 08 01             	orl    $0x1,(%eax)
  101d38:	8b 45 ec             	mov    -0x14(%ebp),%eax
  101d3b:	83 0e 01             	orl    $0x1,(%esi)
  101d3e:	8b 75 f0             	mov    -0x10(%ebp),%esi
  101d41:	89 f2                	mov    %esi,%edx
  101d43:	89 5c b0 fc          	mov    %ebx,-0x4(%eax,%esi,4)
  101d47:	e8 c2 fa ff ff       	call   10180e <rotate>
  101d4c:	8b 45 e0             	mov    -0x20(%ebp),%eax
  101d4f:	39 c7                	cmp    %eax,%edi
  101d51:	75 7d                	jne    101dd0 <rb_remove+0x3b7>
  101d53:	0f b6 55 e4          	movzbl -0x1c(%ebp),%edx
  101d57:	31 c9                	xor    %ecx,%ecx
  101d59:	8b 45 e8             	mov    -0x18(%ebp),%eax
  101d5c:	eb 0a                	jmp    101d68 <rb_remove+0x34f>
  101d5e:	31 d2                	xor    %edx,%edx
  101d60:	39 78 04             	cmp    %edi,0x4(%eax)
  101d63:	0f 94 c2             	sete   %dl
  101d66:	31 c9                	xor    %ecx,%ecx
  101d68:	e8 8f fa ff ff       	call   1017fc <set_child>
  101d6d:	eb 61                	jmp    101dd0 <rb_remove+0x3b7>
  101d6f:	31 d2                	xor    %edx,%edx
  101d71:	89 d9                	mov    %ebx,%ecx
  101d73:	39 78 04             	cmp    %edi,0x4(%eax)
  101d76:	0f 94 c2             	sete   %dl
  101d79:	e8 7e fa ff ff       	call   1017fc <set_child>
  101d7e:	8b 07                	mov    (%edi),%eax
  101d80:	a8 01                	test   $0x1,%al
  101d82:	75 3e                	jne    101dc2 <rb_remove+0x3a9>
  101d84:	f6 03 01             	testb  $0x1,(%ebx)
  101d87:	75 39                	jne    101dc2 <rb_remove+0x3a9>
  101d89:	68 ed 01 00 00       	push   $0x1ed
  101d8e:	68 cd 12 11 00       	push   $0x1112cd
  101d93:	68 ef 12 11 00       	push   $0x1112ef
  101d98:	68 ee 10 11 00       	push   $0x1110ee
  101d9d:	e8 3b f8 ff ff       	call   1015dd <assert_print>
  101da2:	83 c4 10             	add    $0x10,%esp
  101da5:	68 11 13 11 00       	push   $0x111311
  101daa:	e8 2e f8 ff ff       	call   1015dd <assert_print>
  101daf:	c7 04 24 ed 01 00 00 	movl   $0x1ed,(%esp)
  101db6:	68 cd 12 11 00       	push   $0x1112cd
  101dbb:	e8 0e f8 ff ff       	call   1015ce <assert_post_action>
  101dc0:	58                   	pop    %eax
  101dc1:	5a                   	pop    %edx
  101dc2:	8b 13                	mov    (%ebx),%edx
  101dc4:	a8 01                	test   $0x1,%al
  101dc6:	74 05                	je     101dcd <rb_remove+0x3b4>
  101dc8:	80 e2 01             	and    $0x1,%dl
  101dcb:	75 03                	jne    101dd0 <rb_remove+0x3b7>
  101dcd:	83 0b 01             	orl    $0x1,(%ebx)
  101dd0:	8b 45 d4             	mov    -0x2c(%ebp),%eax
  101dd3:	8b 7d 08             	mov    0x8(%ebp),%edi
  101dd6:	8b 04 85 00 00 00 00 	mov    0x0(,%eax,4),%eax
  101ddd:	89 07                	mov    %eax,(%edi)
  101ddf:	8b 65 dc             	mov    -0x24(%ebp),%esp
  101de2:	8d 65 f4             	lea    -0xc(%ebp),%esp
  101de5:	5b                   	pop    %ebx
  101de6:	5e                   	pop    %esi
  101de7:	5f                   	pop    %edi
  101de8:	5d                   	pop    %ebp
  101de9:	c3                   	ret

00101dea <z_rb_foreach_next>:
  101dea:	55                   	push   %ebp
  101deb:	89 e5                	mov    %esp,%ebp
  101ded:	56                   	push   %esi
  101dee:	53                   	push   %ebx
  101def:	8b 45 08             	mov    0x8(%ebp),%eax
  101df2:	8b 55 0c             	mov    0xc(%ebp),%edx
  101df5:	8b 08                	mov    (%eax),%ecx
  101df7:	85 c9                	test   %ecx,%ecx
  101df9:	75 04                	jne    101dff <z_rb_foreach_next+0x15>
  101dfb:	31 c0                	xor    %eax,%eax
  101dfd:	eb 59                	jmp    101e58 <z_rb_foreach_next+0x6e>
  101dff:	8b 42 08             	mov    0x8(%edx),%eax
  101e02:	83 f8 ff             	cmp    $0xffffffff,%eax
  101e05:	75 04                	jne    101e0b <z_rb_foreach_next+0x21>
  101e07:	89 c8                	mov    %ecx,%eax
  101e09:	eb 15                	jmp    101e20 <z_rb_foreach_next+0x36>
  101e0b:	8b 0a                	mov    (%edx),%ecx
  101e0d:	8d 1c 85 00 00 00 00 	lea    0x0(,%eax,4),%ebx
  101e14:	8b 34 81             	mov    (%ecx,%eax,4),%esi
  101e17:	8b 76 04             	mov    0x4(%esi),%esi
  101e1a:	85 f6                	test   %esi,%esi
  101e1c:	74 0a                	je     101e28 <z_rb_foreach_next+0x3e>
  101e1e:	89 f0                	mov    %esi,%eax
  101e20:	5b                   	pop    %ebx
  101e21:	5e                   	pop    %esi
  101e22:	5d                   	pop    %ebp
  101e23:	e9 8b f9 ff ff       	jmp    1017b3 <stack_left_limb>
  101e28:	8b 72 04             	mov    0x4(%edx),%esi
  101e2b:	80 3c 06 00          	cmpb   $0x0,(%esi,%eax,1)
  101e2f:	74 0a                	je     101e3b <z_rb_foreach_next+0x51>
  101e31:	48                   	dec    %eax
  101e32:	89 42 08             	mov    %eax,0x8(%edx)
  101e35:	8b 44 19 fc          	mov    -0x4(%ecx,%ebx,1),%eax
  101e39:	eb 1d                	jmp    101e58 <z_rb_foreach_next+0x6e>
  101e3b:	8b 5a 08             	mov    0x8(%edx),%ebx
  101e3e:	85 db                	test   %ebx,%ebx
  101e40:	8d 43 ff             	lea    -0x1(%ebx),%eax
  101e43:	7e 0e                	jle    101e53 <z_rb_foreach_next+0x69>
  101e45:	80 3c 1e 00          	cmpb   $0x0,(%esi,%ebx,1)
  101e49:	89 42 08             	mov    %eax,0x8(%edx)
  101e4c:	74 ed                	je     101e3b <z_rb_foreach_next+0x51>
  101e4e:	8b 04 81             	mov    (%ecx,%eax,4),%eax
  101e51:	eb 05                	jmp    101e58 <z_rb_foreach_next+0x6e>
  101e53:	89 42 08             	mov    %eax,0x8(%edx)
  101e56:	eb a3                	jmp    101dfb <z_rb_foreach_next+0x11>
  101e58:	5b                   	pop    %ebx
  101e59:	5e                   	pop    %esi
  101e5a:	5d                   	pop    %ebp
  101e5b:	c3                   	ret

00101e5c <setup_bundle_data.constprop.0>:
  101e5c:	55                   	push   %ebp
  101e5d:	89 e5                	mov    %esp,%ebp
  101e5f:	57                   	push   %edi
  101e60:	56                   	push   %esi
  101e61:	89 d7                	mov    %edx,%edi
  101e63:	c1 ef 05             	shr    $0x5,%edi
  101e66:	53                   	push   %ebx
  101e67:	53                   	push   %ebx
  101e68:	89 cb                	mov    %ecx,%ebx
  101e6a:	89 d1                	mov    %edx,%ecx
  101e6c:	89 38                	mov    %edi,(%eax)
  101e6e:	8d 5c 1a ff          	lea    -0x1(%edx,%ebx,1),%ebx
  101e72:	ba 01 00 00 00       	mov    $0x1,%edx
  101e77:	89 de                	mov    %ebx,%esi
  101e79:	83 e3 1f             	and    $0x1f,%ebx
  101e7c:	83 e1 1f             	and    $0x1f,%ecx
  101e7f:	89 5d f0             	mov    %ebx,-0x10(%ebp)
  101e82:	89 58 0c             	mov    %ebx,0xc(%eax)
  101e85:	89 d3                	mov    %edx,%ebx
  101e87:	d3 e3                	shl    %cl,%ebx
  101e89:	c1 ee 05             	shr    $0x5,%esi
  101e8c:	89 48 08             	mov    %ecx,0x8(%eax)
  101e8f:	89 d9                	mov    %ebx,%ecx
  101e91:	89 70 04             	mov    %esi,0x4(%eax)
  101e94:	f7 d9                	neg    %ecx
  101e96:	89 cb                	mov    %ecx,%ebx
  101e98:	89 48 10             	mov    %ecx,0x10(%eax)
  101e9b:	8a 4d f0             	mov    -0x10(%ebp),%cl
  101e9e:	d3 e2                	shl    %cl,%edx
  101ea0:	8d 4a ff             	lea    -0x1(%edx),%ecx
  101ea3:	09 ca                	or     %ecx,%edx
  101ea5:	39 f7                	cmp    %esi,%edi
  101ea7:	89 50 14             	mov    %edx,0x14(%eax)
  101eaa:	75 07                	jne    101eb3 <setup_bundle_data.constprop.0+0x57>
  101eac:	89 de                	mov    %ebx,%esi
  101eae:	21 d6                	and    %edx,%esi
  101eb0:	89 70 10             	mov    %esi,0x10(%eax)
  101eb3:	58                   	pop    %eax
  101eb4:	5b                   	pop    %ebx
  101eb5:	5e                   	pop    %esi
  101eb6:	5f                   	pop    %edi
  101eb7:	5d                   	pop    %ebp
  101eb8:	c3                   	ret

00101eb9 <match_region>:
  101eb9:	55                   	push   %ebp
  101eba:	89 e5                	mov    %esp,%ebp
  101ebc:	57                   	push   %edi
  101ebd:	56                   	push   %esi
  101ebe:	89 c6                	mov    %eax,%esi
  101ec0:	53                   	push   %ebx
  101ec1:	83 ec 08             	sub    $0x8,%esp
  101ec4:	8b 45 08             	mov    0x8(%ebp),%eax
  101ec7:	89 45 f0             	mov    %eax,-0x10(%ebp)
  101eca:	8a 45 f0             	mov    -0x10(%ebp),%al
  101ecd:	88 45 ef             	mov    %al,-0x11(%ebp)
  101ed0:	8b 45 0c             	mov    0xc(%ebp),%eax
  101ed3:	e8 84 ff ff ff       	call   101e5c <setup_bundle_data.constprop.0>
  101ed8:	8b 45 0c             	mov    0xc(%ebp),%eax
  101edb:	8b 76 08             	mov    0x8(%esi),%esi
  101ede:	8b 10                	mov    (%eax),%edx
  101ee0:	8b 78 04             	mov    0x4(%eax),%edi
  101ee3:	8b 40 10             	mov    0x10(%eax),%eax
  101ee6:	39 fa                	cmp    %edi,%edx
  101ee8:	8b 0c 96             	mov    (%esi,%edx,4),%ecx
  101eeb:	75 15                	jne    101f02 <match_region+0x49>
  101eed:	80 7d f0 00          	cmpb   $0x0,-0x10(%ebp)
  101ef1:	75 02                	jne    101ef5 <match_region+0x3c>
  101ef3:	f7 d1                	not    %ecx
  101ef5:	89 c3                	mov    %eax,%ebx
  101ef7:	21 cb                	and    %ecx,%ebx
  101ef9:	39 d8                	cmp    %ebx,%eax
  101efb:	75 15                	jne    101f12 <match_region+0x59>
  101efd:	e9 9d 00 00 00       	jmp    101f9f <match_region+0xe6>
  101f02:	80 7d f0 00          	cmpb   $0x0,-0x10(%ebp)
  101f06:	75 02                	jne    101f0a <match_region+0x51>
  101f08:	f7 d1                	not    %ecx
  101f0a:	89 c3                	mov    %eax,%ebx
  101f0c:	21 cb                	and    %ecx,%ebx
  101f0e:	39 d8                	cmp    %ebx,%eax
  101f10:	74 06                	je     101f18 <match_region+0x5f>
  101f12:	f7 d1                	not    %ecx
  101f14:	21 c8                	and    %ecx,%eax
  101f16:	eb 3f                	jmp    101f57 <match_region+0x9e>
  101f18:	80 7d f0 00          	cmpb   $0x0,-0x10(%ebp)
  101f1c:	8b 04 be             	mov    (%esi,%edi,4),%eax
  101f1f:	75 02                	jne    101f23 <match_region+0x6a>
  101f21:	f7 d0                	not    %eax
  101f23:	8b 5d 0c             	mov    0xc(%ebp),%ebx
  101f26:	8b 4b 14             	mov    0x14(%ebx),%ecx
  101f29:	89 cb                	mov    %ecx,%ebx
  101f2b:	21 c3                	and    %eax,%ebx
  101f2d:	39 d9                	cmp    %ebx,%ecx
  101f2f:	74 17                	je     101f48 <match_region+0x8f>
  101f31:	f7 d0                	not    %eax
  101f33:	21 c8                	and    %ecx,%eax
  101f35:	89 fa                	mov    %edi,%edx
  101f37:	eb 1e                	jmp    101f57 <match_region+0x9e>
  101f39:	80 7d ef 00          	cmpb   $0x0,-0x11(%ebp)
  101f3d:	8b 04 96             	mov    (%esi,%edx,4),%eax
  101f40:	74 02                	je     101f44 <match_region+0x8b>
  101f42:	f7 d0                	not    %eax
  101f44:	85 c0                	test   %eax,%eax
  101f46:	75 07                	jne    101f4f <match_region+0x96>
  101f48:	42                   	inc    %edx
  101f49:	39 fa                	cmp    %edi,%edx
  101f4b:	72 ec                	jb     101f39 <match_region+0x80>
  101f4d:	eb 50                	jmp    101f9f <match_region+0xe6>
  101f4f:	83 7d 10 00          	cmpl   $0x0,0x10(%ebp)
  101f53:	75 39                	jne    101f8e <match_region+0xd5>
  101f55:	eb 44                	jmp    101f9b <match_region+0xe2>
  101f57:	83 7d 10 00          	cmpl   $0x0,0x10(%ebp)
  101f5b:	74 3e                	je     101f9b <match_region+0xe2>
  101f5d:	85 c0                	test   %eax,%eax
  101f5f:	75 2d                	jne    101f8e <match_region+0xd5>
  101f61:	68 96 00 00 00       	push   $0x96
  101f66:	68 24 13 11 00       	push   $0x111324
  101f6b:	68 4c 13 11 00       	push   $0x11134c
  101f70:	68 ee 10 11 00       	push   $0x1110ee
  101f75:	e8 63 f6 ff ff       	call   1015dd <assert_print>
  101f7a:	83 c4 10             	add    $0x10,%esp
  101f7d:	68 96 00 00 00       	push   $0x96
  101f82:	68 24 13 11 00       	push   $0x111324
  101f87:	e8 42 f6 ff ff       	call   1015ce <assert_post_action>
  101f8c:	58                   	pop    %eax
  101f8d:	5a                   	pop    %edx
  101f8e:	0f bc c0             	bsf    %eax,%eax
  101f91:	c1 e2 05             	shl    $0x5,%edx
  101f94:	01 c2                	add    %eax,%edx
  101f96:	8b 45 10             	mov    0x10(%ebp),%eax
  101f99:	89 10                	mov    %edx,(%eax)
  101f9b:	31 c0                	xor    %eax,%eax
  101f9d:	eb 02                	jmp    101fa1 <match_region+0xe8>
  101f9f:	b0 01                	mov    $0x1,%al
  101fa1:	8d 65 f4             	lea    -0xc(%ebp),%esp
  101fa4:	5b                   	pop    %ebx
  101fa5:	5e                   	pop    %esi
  101fa6:	5f                   	pop    %edi
  101fa7:	5d                   	pop    %ebp
  101fa8:	c3                   	ret

00101fa9 <set_region>:
  101fa9:	55                   	push   %ebp
  101faa:	89 e5                	mov    %esp,%ebp
  101fac:	57                   	push   %edi
  101fad:	56                   	push   %esi
  101fae:	53                   	push   %ebx
  101faf:	89 c3                	mov    %eax,%ebx
  101fb1:	83 ec 1c             	sub    $0x1c,%esp
  101fb4:	8b 45 0c             	mov    0xc(%ebp),%eax
  101fb7:	8b 75 08             	mov    0x8(%ebp),%esi
  101fba:	85 c0                	test   %eax,%eax
  101fbc:	75 0b                	jne    101fc9 <set_region+0x20>
  101fbe:	8d 45 dc             	lea    -0x24(%ebp),%eax
  101fc1:	e8 96 fe ff ff       	call   101e5c <setup_bundle_data.constprop.0>
  101fc6:	8d 45 dc             	lea    -0x24(%ebp),%eax
  101fc9:	8b 53 08             	mov    0x8(%ebx),%edx
  101fcc:	8b 38                	mov    (%eax),%edi
  101fce:	8d 3c ba             	lea    (%edx,%edi,4),%edi
  101fd1:	8b 50 10             	mov    0x10(%eax),%edx
  101fd4:	89 55 d8             	mov    %edx,-0x28(%ebp)
  101fd7:	8b 50 04             	mov    0x4(%eax),%edx
  101fda:	39 10                	cmp    %edx,(%eax)
  101fdc:	8b 0f                	mov    (%edi),%ecx
  101fde:	75 1a                	jne    101ffa <set_region+0x51>
  101fe0:	89 f0                	mov    %esi,%eax
  101fe2:	84 c0                	test   %al,%al
  101fe4:	74 09                	je     101fef <set_region+0x46>
  101fe6:	8b 45 d8             	mov    -0x28(%ebp),%eax
  101fe9:	09 c1                	or     %eax,%ecx
  101feb:	89 0f                	mov    %ecx,(%edi)
  101fed:	eb 67                	jmp    102056 <set_region+0xad>
  101fef:	8b 55 d8             	mov    -0x28(%ebp),%edx
  101ff2:	f7 d2                	not    %edx
  101ff4:	21 ca                	and    %ecx,%edx
  101ff6:	89 17                	mov    %edx,(%edi)
  101ff8:	eb 5c                	jmp    102056 <set_region+0xad>
  101ffa:	89 f2                	mov    %esi,%edx
  101ffc:	84 d2                	test   %dl,%dl
  101ffe:	74 2a                	je     10202a <set_region+0x81>
  102000:	8b 75 d8             	mov    -0x28(%ebp),%esi
  102003:	09 f1                	or     %esi,%ecx
  102005:	89 0f                	mov    %ecx,(%edi)
  102007:	8b 53 08             	mov    0x8(%ebx),%edx
  10200a:	8b 48 04             	mov    0x4(%eax),%ecx
  10200d:	8b 70 14             	mov    0x14(%eax),%esi
  102010:	09 34 8a             	or     %esi,(%edx,%ecx,4)
  102013:	8b 30                	mov    (%eax),%esi
  102015:	8d 56 01             	lea    0x1(%esi),%edx
  102018:	3b 50 04             	cmp    0x4(%eax),%edx
  10201b:	73 39                	jae    102056 <set_region+0xad>
  10201d:	8b 4b 08             	mov    0x8(%ebx),%ecx
  102020:	c7 04 91 ff ff ff ff 	movl   $0xffffffff,(%ecx,%edx,4)
  102027:	42                   	inc    %edx
  102028:	eb ee                	jmp    102018 <set_region+0x6f>
  10202a:	8b 55 d8             	mov    -0x28(%ebp),%edx
  10202d:	f7 d2                	not    %edx
  10202f:	21 ca                	and    %ecx,%edx
  102031:	89 17                	mov    %edx,(%edi)
  102033:	8b 50 14             	mov    0x14(%eax),%edx
  102036:	8b 70 04             	mov    0x4(%eax),%esi
  102039:	8b 4b 08             	mov    0x8(%ebx),%ecx
  10203c:	f7 d2                	not    %edx
  10203e:	21 14 b1             	and    %edx,(%ecx,%esi,4)
  102041:	8b 38                	mov    (%eax),%edi
  102043:	8d 57 01             	lea    0x1(%edi),%edx
  102046:	3b 50 04             	cmp    0x4(%eax),%edx
  102049:	73 0b                	jae    102056 <set_region+0xad>
  10204b:	8b 4b 08             	mov    0x8(%ebx),%ecx
  10204e:	31 f6                	xor    %esi,%esi
  102050:	89 34 91             	mov    %esi,(%ecx,%edx,4)
  102053:	42                   	inc    %edx
  102054:	eb f0                	jmp    102046 <set_region+0x9d>
  102056:	83 c4 1c             	add    $0x1c,%esp
  102059:	5b                   	pop    %ebx
  10205a:	5e                   	pop    %esi
  10205b:	5f                   	pop    %edi
  10205c:	5d                   	pop    %ebp
  10205d:	c3                   	ret

0010205e <set_clear_region>:
  10205e:	55                   	push   %ebp
  10205f:	89 e5                	mov    %esp,%ebp
  102061:	57                   	push   %edi
  102062:	56                   	push   %esi
  102063:	53                   	push   %ebx
  102064:	89 c3                	mov    %eax,%ebx
  102066:	83 ec 14             	sub    $0x14,%esp
  102069:	89 55 ec             	mov    %edx,-0x14(%ebp)
  10206c:	8b 45 08             	mov    0x8(%ebp),%eax
  10206f:	89 4d e0             	mov    %ecx,-0x20(%ebp)
  102072:	89 45 e8             	mov    %eax,-0x18(%ebp)
  102075:	8b 45 ec             	mov    -0x14(%ebp),%eax
  102078:	8d 73 0c             	lea    0xc(%ebx),%esi
  10207b:	8d 78 ff             	lea    -0x1(%eax),%edi
  10207e:	8d 04 39             	lea    (%ecx,%edi,1),%eax
  102081:	89 45 f0             	mov    %eax,-0x10(%ebp)
  102084:	9c                   	pushf
  102085:	fa                   	cli
  102086:	8f 45 e4             	pop    -0x1c(%ebp)
  102089:	56                   	push   %esi
  10208a:	e8 60 8c 00 00       	call   10acef <z_spin_lock_valid>
  10208f:	5a                   	pop    %edx
  102090:	84 c0                	test   %al,%al
  102092:	8b 55 e0             	mov    -0x20(%ebp),%edx
  102095:	75 33                	jne    1020ca <set_clear_region+0x6c>
  102097:	68 88 00 00 00       	push   $0x88
  10209c:	68 61 13 11 00       	push   $0x111361
  1020a1:	68 8e 13 11 00       	push   $0x11138e
  1020a6:	68 ee 10 11 00       	push   $0x1110ee
  1020ab:	e8 2d f5 ff ff       	call   1015dd <assert_print>
  1020b0:	83 c4 10             	add    $0x10,%esp
  1020b3:	56                   	push   %esi
  1020b4:	68 a3 13 11 00       	push   $0x1113a3
  1020b9:	e8 1f f5 ff ff       	call   1015dd <assert_print>
  1020be:	5b                   	pop    %ebx
  1020bf:	5e                   	pop    %esi
  1020c0:	68 88 00 00 00       	push   $0x88
  1020c5:	e9 cf 00 00 00       	jmp    102199 <set_clear_region+0x13b>
  1020ca:	89 55 e0             	mov    %edx,-0x20(%ebp)
  1020cd:	56                   	push   %esi
  1020ce:	e8 74 8c 00 00       	call   10ad47 <z_spin_lock_set_owner>
  1020d3:	59                   	pop    %ecx
  1020d4:	85 db                	test   %ebx,%ebx
  1020d6:	8b 55 e0             	mov    -0x20(%ebp),%edx
  1020d9:	75 2d                	jne    102108 <set_clear_region+0xaa>
  1020db:	68 d0 02 00 00       	push   $0x2d0
  1020e0:	68 24 13 11 00       	push   $0x111324
  1020e5:	68 b9 13 11 00       	push   $0x1113b9
  1020ea:	68 ee 10 11 00       	push   $0x1110ee
  1020ef:	e8 e9 f4 ff ff       	call   1015dd <assert_print>
  1020f4:	83 c4 10             	add    $0x10,%esp
  1020f7:	68 d0 02 00 00       	push   $0x2d0
  1020fc:	68 24 13 11 00       	push   $0x111324
  102101:	e8 c8 f4 ff ff       	call   1015ce <assert_post_action>
  102106:	58                   	pop    %eax
  102107:	5a                   	pop    %edx
  102108:	8b 03                	mov    (%ebx),%eax
  10210a:	85 c0                	test   %eax,%eax
  10210c:	75 23                	jne    102131 <set_clear_region+0xd3>
  10210e:	68 d1 02 00 00       	push   $0x2d1
  102113:	68 24 13 11 00       	push   $0x111324
  102118:	68 d1 13 11 00       	push   $0x1113d1
  10211d:	68 ee 10 11 00       	push   $0x1110ee
  102122:	e8 b6 f4 ff ff       	call   1015dd <assert_print>
  102127:	83 c4 10             	add    $0x10,%esp
  10212a:	68 d1 02 00 00       	push   $0x2d1
  10212f:	eb cb                	jmp    1020fc <set_clear_region+0x9e>
  102131:	89 d1                	mov    %edx,%ecx
  102133:	39 fa                	cmp    %edi,%edx
  102135:	73 02                	jae    102139 <set_clear_region+0xdb>
  102137:	89 f9                	mov    %edi,%ecx
  102139:	8b 7d f0             	mov    -0x10(%ebp),%edi
  10213c:	39 f9                	cmp    %edi,%ecx
  10213e:	73 02                	jae    102142 <set_clear_region+0xe4>
  102140:	89 f9                	mov    %edi,%ecx
  102142:	bf ea ff ff ff       	mov    $0xffffffea,%edi
  102147:	39 c1                	cmp    %eax,%ecx
  102149:	73 15                	jae    102160 <set_clear_region+0x102>
  10214b:	6a 00                	push   $0x0
  10214d:	0f b6 45 e8          	movzbl -0x18(%ebp),%eax
  102151:	50                   	push   %eax
  102152:	89 d8                	mov    %ebx,%eax
  102154:	8b 4d ec             	mov    -0x14(%ebp),%ecx
  102157:	e8 4d fe ff ff       	call   101fa9 <set_region>
  10215c:	5b                   	pop    %ebx
  10215d:	5f                   	pop    %edi
  10215e:	31 ff                	xor    %edi,%edi
  102160:	56                   	push   %esi
  102161:	e8 aa 8b 00 00       	call   10ad10 <z_spin_unlock_valid>
  102166:	59                   	pop    %ecx
  102167:	84 c0                	test   %al,%al
  102169:	75 38                	jne    1021a3 <set_clear_region+0x145>
  10216b:	68 31 01 00 00       	push   $0x131
  102170:	68 61 13 11 00       	push   $0x111361
  102175:	68 e8 13 11 00       	push   $0x1113e8
  10217a:	68 ee 10 11 00       	push   $0x1110ee
  10217f:	e8 59 f4 ff ff       	call   1015dd <assert_print>
  102184:	83 c4 10             	add    $0x10,%esp
  102187:	56                   	push   %esi
  102188:	68 ff 13 11 00       	push   $0x1113ff
  10218d:	e8 4b f4 ff ff       	call   1015dd <assert_print>
  102192:	58                   	pop    %eax
  102193:	5a                   	pop    %edx
  102194:	68 31 01 00 00       	push   $0x131
  102199:	68 61 13 11 00       	push   $0x111361
  10219e:	e9 5e ff ff ff       	jmp    102101 <set_clear_region+0xa3>
  1021a3:	0f ba 65 e4 09       	btl    $0x9,-0x1c(%ebp)
  1021a8:	73 01                	jae    1021ab <set_clear_region+0x14d>
  1021aa:	fb                   	sti
  1021ab:	8d 65 f4             	lea    -0xc(%ebp),%esp
  1021ae:	89 f8                	mov    %edi,%eax
  1021b0:	5b                   	pop    %ebx
  1021b1:	5e                   	pop    %esi
  1021b2:	5f                   	pop    %edi
  1021b3:	5d                   	pop    %ebp
  1021b4:	c3                   	ret

001021b5 <sys_bitarray_alloc>:
  1021b5:	55                   	push   %ebp
  1021b6:	89 e5                	mov    %esp,%ebp
  1021b8:	57                   	push   %edi
  1021b9:	56                   	push   %esi
  1021ba:	53                   	push   %ebx
  1021bb:	83 ec 28             	sub    $0x28,%esp
  1021be:	8b 5d 08             	mov    0x8(%ebp),%ebx
  1021c1:	85 db                	test   %ebx,%ebx
  1021c3:	75 23                	jne    1021e8 <sys_bitarray_alloc+0x33>
  1021c5:	68 f5 01 00 00       	push   $0x1f5
  1021ca:	68 24 13 11 00       	push   $0x111324
  1021cf:	68 b9 13 11 00       	push   $0x1113b9
  1021d4:	68 ee 10 11 00       	push   $0x1110ee
  1021d9:	e8 ff f3 ff ff       	call   1015dd <assert_print>
  1021de:	83 c4 10             	add    $0x10,%esp
  1021e1:	68 f5 01 00 00       	push   $0x1f5
  1021e6:	eb 26                	jmp    10220e <sys_bitarray_alloc+0x59>
  1021e8:	83 3b 00             	cmpl   $0x0,(%ebx)
  1021eb:	75 2d                	jne    10221a <sys_bitarray_alloc+0x65>
  1021ed:	68 f6 01 00 00       	push   $0x1f6
  1021f2:	68 24 13 11 00       	push   $0x111324
  1021f7:	68 d1 13 11 00       	push   $0x1113d1
  1021fc:	68 ee 10 11 00       	push   $0x1110ee
  102201:	e8 d7 f3 ff ff       	call   1015dd <assert_print>
  102206:	83 c4 10             	add    $0x10,%esp
  102209:	68 f6 01 00 00       	push   $0x1f6
  10220e:	68 24 13 11 00       	push   $0x111324
  102213:	e8 b6 f3 ff ff       	call   1015ce <assert_post_action>
  102218:	5b                   	pop    %ebx
  102219:	5e                   	pop    %esi
  10221a:	8d 73 0c             	lea    0xc(%ebx),%esi
  10221d:	9c                   	pushf
  10221e:	fa                   	cli
  10221f:	8f 45 cc             	pop    -0x34(%ebp)
  102222:	56                   	push   %esi
  102223:	e8 c7 8a 00 00       	call   10acef <z_spin_lock_valid>
  102228:	59                   	pop    %ecx
  102229:	84 c0                	test   %al,%al
  10222b:	75 33                	jne    102260 <sys_bitarray_alloc+0xab>
  10222d:	68 88 00 00 00       	push   $0x88
  102232:	68 61 13 11 00       	push   $0x111361
  102237:	68 8e 13 11 00       	push   $0x11138e
  10223c:	68 ee 10 11 00       	push   $0x1110ee
  102241:	e8 97 f3 ff ff       	call   1015dd <assert_print>
  102246:	83 c4 10             	add    $0x10,%esp
  102249:	56                   	push   %esi
  10224a:	68 a3 13 11 00       	push   $0x1113a3
  10224f:	e8 89 f3 ff ff       	call   1015dd <assert_print>
  102254:	58                   	pop    %eax
  102255:	5a                   	pop    %edx
  102256:	68 88 00 00 00       	push   $0x88
  10225b:	e9 ee 00 00 00       	jmp    10234e <sys_bitarray_alloc+0x199>
  102260:	56                   	push   %esi
  102261:	e8 e1 8a 00 00       	call   10ad47 <z_spin_lock_set_owner>
  102266:	83 7d 0c 00          	cmpl   $0x0,0xc(%ebp)
  10226a:	58                   	pop    %eax
  10226b:	0f 84 9f 00 00 00    	je     102310 <sys_bitarray_alloc+0x15b>
  102271:	83 7d 10 00          	cmpl   $0x0,0x10(%ebp)
  102275:	0f 84 95 00 00 00    	je     102310 <sys_bitarray_alloc+0x15b>
  10227b:	8b 13                	mov    (%ebx),%edx
  10227d:	bf ea ff ff ff       	mov    $0xffffffea,%edi
  102282:	3b 55 0c             	cmp    0xc(%ebp),%edx
  102285:	0f 82 8a 00 00 00    	jb     102315 <sys_bitarray_alloc+0x160>
  10228b:	8b 7b 04             	mov    0x4(%ebx),%edi
  10228e:	31 c9                	xor    %ecx,%ecx
  102290:	89 c8                	mov    %ecx,%eax
  102292:	c1 e0 05             	shl    $0x5,%eax
  102295:	39 cf                	cmp    %ecx,%edi
  102297:	89 45 d4             	mov    %eax,-0x2c(%ebp)
  10229a:	74 1a                	je     1022b6 <sys_bitarray_alloc+0x101>
  10229c:	8b 43 08             	mov    0x8(%ebx),%eax
  10229f:	8b 04 88             	mov    (%eax,%ecx,4),%eax
  1022a2:	83 f8 ff             	cmp    $0xffffffff,%eax
  1022a5:	75 03                	jne    1022aa <sys_bitarray_alloc+0xf5>
  1022a7:	41                   	inc    %ecx
  1022a8:	eb e6                	jmp    102290 <sys_bitarray_alloc+0xdb>
  1022aa:	85 c0                	test   %eax,%eax
  1022ac:	74 08                	je     1022b6 <sys_bitarray_alloc+0x101>
  1022ae:	f7 d0                	not    %eax
  1022b0:	0f bc c0             	bsf    %eax,%eax
  1022b3:	01 45 d4             	add    %eax,-0x2c(%ebp)
  1022b6:	2b 55 0c             	sub    0xc(%ebp),%edx
  1022b9:	89 55 d0             	mov    %edx,-0x30(%ebp)
  1022bc:	8b 55 d4             	mov    -0x2c(%ebp),%edx
  1022bf:	39 55 d0             	cmp    %edx,-0x30(%ebp)
  1022c2:	72 45                	jb     102309 <sys_bitarray_alloc+0x154>
  1022c4:	8d 45 d8             	lea    -0x28(%ebp),%eax
  1022c7:	8d 7d dc             	lea    -0x24(%ebp),%edi
  1022ca:	50                   	push   %eax
  1022cb:	89 d8                	mov    %ebx,%eax
  1022cd:	57                   	push   %edi
  1022ce:	6a 00                	push   $0x0
  1022d0:	8b 4d 0c             	mov    0xc(%ebp),%ecx
  1022d3:	8b 55 d4             	mov    -0x2c(%ebp),%edx
  1022d6:	e8 de fb ff ff       	call   101eb9 <match_region>
  1022db:	83 c4 0c             	add    $0xc,%esp
  1022de:	84 c0                	test   %al,%al
  1022e0:	74 1e                	je     102300 <sys_bitarray_alloc+0x14b>
  1022e2:	57                   	push   %edi
  1022e3:	89 d8                	mov    %ebx,%eax
  1022e5:	6a 01                	push   $0x1
  1022e7:	8b 55 d4             	mov    -0x2c(%ebp),%edx
  1022ea:	8b 4d 0c             	mov    0xc(%ebp),%ecx
  1022ed:	e8 b7 fc ff ff       	call   101fa9 <set_region>
  1022f2:	8b 45 10             	mov    0x10(%ebp),%eax
  1022f5:	5b                   	pop    %ebx
  1022f6:	8b 55 d4             	mov    -0x2c(%ebp),%edx
  1022f9:	5f                   	pop    %edi
  1022fa:	89 10                	mov    %edx,(%eax)
  1022fc:	31 ff                	xor    %edi,%edi
  1022fe:	eb 15                	jmp    102315 <sys_bitarray_alloc+0x160>
  102300:	8b 45 d8             	mov    -0x28(%ebp),%eax
  102303:	40                   	inc    %eax
  102304:	89 45 d4             	mov    %eax,-0x2c(%ebp)
  102307:	eb b3                	jmp    1022bc <sys_bitarray_alloc+0x107>
  102309:	bf e4 ff ff ff       	mov    $0xffffffe4,%edi
  10230e:	eb 05                	jmp    102315 <sys_bitarray_alloc+0x160>
  102310:	bf ea ff ff ff       	mov    $0xffffffea,%edi
  102315:	56                   	push   %esi
  102316:	e8 f5 89 00 00       	call   10ad10 <z_spin_unlock_valid>
  10231b:	59                   	pop    %ecx
  10231c:	84 c0                	test   %al,%al
  10231e:	75 38                	jne    102358 <sys_bitarray_alloc+0x1a3>
  102320:	68 31 01 00 00       	push   $0x131
  102325:	68 61 13 11 00       	push   $0x111361
  10232a:	68 e8 13 11 00       	push   $0x1113e8
  10232f:	68 ee 10 11 00       	push   $0x1110ee
  102334:	e8 a4 f2 ff ff       	call   1015dd <assert_print>
  102339:	83 c4 10             	add    $0x10,%esp
  10233c:	56                   	push   %esi
  10233d:	68 ff 13 11 00       	push   $0x1113ff
  102342:	e8 96 f2 ff ff       	call   1015dd <assert_print>
  102347:	58                   	pop    %eax
  102348:	5a                   	pop    %edx
  102349:	68 31 01 00 00       	push   $0x131
  10234e:	68 61 13 11 00       	push   $0x111361
  102353:	e9 bb fe ff ff       	jmp    102213 <sys_bitarray_alloc+0x5e>
  102358:	0f ba 65 cc 09       	btl    $0x9,-0x34(%ebp)
  10235d:	73 01                	jae    102360 <sys_bitarray_alloc+0x1ab>
  10235f:	fb                   	sti
  102360:	8d 65 f4             	lea    -0xc(%ebp),%esp
  102363:	89 f8                	mov    %edi,%eax
  102365:	5b                   	pop    %ebx
  102366:	5e                   	pop    %esi
  102367:	5f                   	pop    %edi
  102368:	5d                   	pop    %ebp
  102369:	c3                   	ret

0010236a <sys_bitarray_free>:
  10236a:	55                   	push   %ebp
  10236b:	89 e5                	mov    %esp,%ebp
  10236d:	57                   	push   %edi
  10236e:	56                   	push   %esi
  10236f:	53                   	push   %ebx
  102370:	83 ec 20             	sub    $0x20,%esp
  102373:	8b 45 0c             	mov    0xc(%ebp),%eax
  102376:	8b 4d 10             	mov    0x10(%ebp),%ecx
  102379:	8b 5d 08             	mov    0x8(%ebp),%ebx
  10237c:	8d 7c 08 ff          	lea    -0x1(%eax,%ecx,1),%edi
  102380:	85 db                	test   %ebx,%ebx
  102382:	75 23                	jne    1023a7 <sys_bitarray_free+0x3d>
  102384:	68 86 02 00 00       	push   $0x286
  102389:	68 24 13 11 00       	push   $0x111324
  10238e:	68 b9 13 11 00       	push   $0x1113b9
  102393:	68 ee 10 11 00       	push   $0x1110ee
  102398:	e8 40 f2 ff ff       	call   1015dd <assert_print>
  10239d:	83 c4 10             	add    $0x10,%esp
  1023a0:	68 86 02 00 00       	push   $0x286
  1023a5:	eb 26                	jmp    1023cd <sys_bitarray_free+0x63>
  1023a7:	83 3b 00             	cmpl   $0x0,(%ebx)
  1023aa:	75 2d                	jne    1023d9 <sys_bitarray_free+0x6f>
  1023ac:	68 87 02 00 00       	push   $0x287
  1023b1:	68 24 13 11 00       	push   $0x111324
  1023b6:	68 d1 13 11 00       	push   $0x1113d1
  1023bb:	68 ee 10 11 00       	push   $0x1110ee
  1023c0:	e8 18 f2 ff ff       	call   1015dd <assert_print>
  1023c5:	83 c4 10             	add    $0x10,%esp
  1023c8:	68 87 02 00 00       	push   $0x287
  1023cd:	68 24 13 11 00       	push   $0x111324
  1023d2:	e8 f7 f1 ff ff       	call   1015ce <assert_post_action>
  1023d7:	5b                   	pop    %ebx
  1023d8:	5e                   	pop    %esi
  1023d9:	8d 73 0c             	lea    0xc(%ebx),%esi
  1023dc:	9c                   	pushf
  1023dd:	fa                   	cli
  1023de:	8f 45 d8             	pop    -0x28(%ebp)
  1023e1:	56                   	push   %esi
  1023e2:	e8 08 89 00 00       	call   10acef <z_spin_lock_valid>
  1023e7:	59                   	pop    %ecx
  1023e8:	84 c0                	test   %al,%al
  1023ea:	75 33                	jne    10241f <sys_bitarray_free+0xb5>
  1023ec:	68 88 00 00 00       	push   $0x88
  1023f1:	68 61 13 11 00       	push   $0x111361
  1023f6:	68 8e 13 11 00       	push   $0x11138e
  1023fb:	68 ee 10 11 00       	push   $0x1110ee
  102400:	e8 d8 f1 ff ff       	call   1015dd <assert_print>
  102405:	83 c4 10             	add    $0x10,%esp
  102408:	56                   	push   %esi
  102409:	68 a3 13 11 00       	push   $0x1113a3
  10240e:	e8 ca f1 ff ff       	call   1015dd <assert_print>
  102413:	58                   	pop    %eax
  102414:	5a                   	pop    %edx
  102415:	68 88 00 00 00       	push   $0x88
  10241a:	e9 a3 00 00 00       	jmp    1024c2 <sys_bitarray_free+0x158>
  10241f:	56                   	push   %esi
  102420:	e8 22 89 00 00       	call   10ad47 <z_spin_lock_set_owner>
  102425:	83 7d 0c 00          	cmpl   $0x0,0xc(%ebp)
  102429:	58                   	pop    %eax
  10242a:	ba ea ff ff ff       	mov    $0xffffffea,%edx
  10242f:	74 52                	je     102483 <sys_bitarray_free+0x119>
  102431:	8b 03                	mov    (%ebx),%eax
  102433:	3b 45 0c             	cmp    0xc(%ebp),%eax
  102436:	0f 92 c2             	setb   %dl
  102439:	39 45 10             	cmp    %eax,0x10(%ebp)
  10243c:	0f 93 c1             	setae  %cl
  10243f:	08 ca                	or     %cl,%dl
  102441:	75 3b                	jne    10247e <sys_bitarray_free+0x114>
  102443:	39 c7                	cmp    %eax,%edi
  102445:	73 37                	jae    10247e <sys_bitarray_free+0x114>
  102447:	6a 00                	push   $0x0
  102449:	8d 7d dc             	lea    -0x24(%ebp),%edi
  10244c:	57                   	push   %edi
  10244d:	89 d8                	mov    %ebx,%eax
  10244f:	6a 01                	push   $0x1
  102451:	8b 55 10             	mov    0x10(%ebp),%edx
  102454:	8b 4d 0c             	mov    0xc(%ebp),%ecx
  102457:	e8 5d fa ff ff       	call   101eb9 <match_region>
  10245c:	83 c4 0c             	add    $0xc,%esp
  10245f:	ba f2 ff ff ff       	mov    $0xfffffff2,%edx
  102464:	84 c0                	test   %al,%al
  102466:	74 1b                	je     102483 <sys_bitarray_free+0x119>
  102468:	57                   	push   %edi
  102469:	89 d8                	mov    %ebx,%eax
  10246b:	6a 00                	push   $0x0
  10246d:	8b 55 10             	mov    0x10(%ebp),%edx
  102470:	8b 4d 0c             	mov    0xc(%ebp),%ecx
  102473:	e8 31 fb ff ff       	call   101fa9 <set_region>
  102478:	5b                   	pop    %ebx
  102479:	5f                   	pop    %edi
  10247a:	31 d2                	xor    %edx,%edx
  10247c:	eb 05                	jmp    102483 <sys_bitarray_free+0x119>
  10247e:	ba ea ff ff ff       	mov    $0xffffffea,%edx
  102483:	89 55 d4             	mov    %edx,-0x2c(%ebp)
  102486:	56                   	push   %esi
  102487:	e8 84 88 00 00       	call   10ad10 <z_spin_unlock_valid>
  10248c:	59                   	pop    %ecx
  10248d:	84 c0                	test   %al,%al
  10248f:	8b 55 d4             	mov    -0x2c(%ebp),%edx
  102492:	75 38                	jne    1024cc <sys_bitarray_free+0x162>
  102494:	68 31 01 00 00       	push   $0x131
  102499:	68 61 13 11 00       	push   $0x111361
  10249e:	68 e8 13 11 00       	push   $0x1113e8
  1024a3:	68 ee 10 11 00       	push   $0x1110ee
  1024a8:	e8 30 f1 ff ff       	call   1015dd <assert_print>
  1024ad:	83 c4 10             	add    $0x10,%esp
  1024b0:	56                   	push   %esi
  1024b1:	68 ff 13 11 00       	push   $0x1113ff
  1024b6:	e8 22 f1 ff ff       	call   1015dd <assert_print>
  1024bb:	58                   	pop    %eax
  1024bc:	5a                   	pop    %edx
  1024bd:	68 31 01 00 00       	push   $0x131
  1024c2:	68 61 13 11 00       	push   $0x111361
  1024c7:	e9 06 ff ff ff       	jmp    1023d2 <sys_bitarray_free+0x68>
  1024cc:	0f ba 65 d8 09       	btl    $0x9,-0x28(%ebp)
  1024d1:	73 01                	jae    1024d4 <sys_bitarray_free+0x16a>
  1024d3:	fb                   	sti
  1024d4:	8d 65 f4             	lea    -0xc(%ebp),%esp
  1024d7:	89 d0                	mov    %edx,%eax
  1024d9:	5b                   	pop    %ebx
  1024da:	5e                   	pop    %esi
  1024db:	5f                   	pop    %edi
  1024dc:	5d                   	pop    %ebp
  1024dd:	c3                   	ret

001024de <sys_bitarray_set_region>:
  1024de:	55                   	push   %ebp
  1024df:	89 e5                	mov    %esp,%ebp
  1024e1:	8b 45 08             	mov    0x8(%ebp),%eax
  1024e4:	8b 4d 10             	mov    0x10(%ebp),%ecx
  1024e7:	c7 45 08 01 00 00 00 	movl   $0x1,0x8(%ebp)
  1024ee:	8b 55 0c             	mov    0xc(%ebp),%edx
  1024f1:	5d                   	pop    %ebp
  1024f2:	e9 67 fb ff ff       	jmp    10205e <set_clear_region>

001024f7 <_ConfigAbsSyms>:
  1024f7:	c3                   	ret

001024f8 <z_log_minimal_printk>:
  1024f8:	55                   	push   %ebp
  1024f9:	89 e5                	mov    %esp,%ebp
  1024fb:	8d 45 0c             	lea    0xc(%ebp),%eax
  1024fe:	50                   	push   %eax
  1024ff:	ff 75 08             	push   0x8(%ebp)
  102502:	e8 42 ef ff ff       	call   101449 <vprintk>
  102507:	58                   	pop    %eax
  102508:	5a                   	pop    %edx
  102509:	c9                   	leave
  10250a:	c3                   	ret

0010250b <z_log_minimal_hexdump_print>:
  10250b:	55                   	push   %ebp
  10250c:	89 e5                	mov    %esp,%ebp
  10250e:	57                   	push   %edi
  10250f:	56                   	push   %esi
  102510:	53                   	push   %ebx
  102511:	8b 5d 10             	mov    0x10(%ebp),%ebx
  102514:	8b 75 0c             	mov    0xc(%ebp),%esi
  102517:	03 75 10             	add    0x10(%ebp),%esi
  10251a:	29 de                	sub    %ebx,%esi
  10251c:	85 db                	test   %ebx,%ebx
  10251e:	0f 84 aa 00 00 00    	je     1025ce <z_log_minimal_hexdump_print+0xc3>
  102524:	8b 45 08             	mov    0x8(%ebp),%eax
  102527:	8d 50 ff             	lea    -0x1(%eax),%edx
  10252a:	b8 3f 00 00 00       	mov    $0x3f,%eax
  10252f:	83 fa 03             	cmp    $0x3,%edx
  102532:	77 07                	ja     10253b <z_log_minimal_hexdump_print+0x30>
  102534:	0f be 82 2c 07 11 00 	movsbl 0x11072c(%edx),%eax
  10253b:	50                   	push   %eax
  10253c:	68 14 14 11 00       	push   $0x111414
  102541:	e8 22 f0 ff ff       	call   101568 <printk>
  102546:	59                   	pop    %ecx
  102547:	5f                   	pop    %edi
  102548:	31 ff                	xor    %edi,%edi
  10254a:	39 df                	cmp    %ebx,%edi
  10254c:	73 13                	jae    102561 <z_log_minimal_hexdump_print+0x56>
  10254e:	0f b6 14 3e          	movzbl (%esi,%edi,1),%edx
  102552:	52                   	push   %edx
  102553:	68 19 14 11 00       	push   $0x111419
  102558:	e8 0b f0 ff ff       	call   101568 <printk>
  10255d:	58                   	pop    %eax
  10255e:	5a                   	pop    %edx
  10255f:	eb 0b                	jmp    10256c <z_log_minimal_hexdump_print+0x61>
  102561:	68 1f 14 11 00       	push   $0x11141f
  102566:	e8 fd ef ff ff       	call   101568 <printk>
  10256b:	58                   	pop    %eax
  10256c:	47                   	inc    %edi
  10256d:	83 ff 08             	cmp    $0x8,%edi
  102570:	75 d8                	jne    10254a <z_log_minimal_hexdump_print+0x3f>
  102572:	68 23 14 11 00       	push   $0x111423
  102577:	31 ff                	xor    %edi,%edi
  102579:	e8 ea ef ff ff       	call   101568 <printk>
  10257e:	58                   	pop    %eax
  10257f:	39 df                	cmp    %ebx,%edi
  102581:	73 22                	jae    1025a5 <z_log_minimal_hexdump_print+0x9a>
  102583:	0f b6 0c 3e          	movzbl (%esi,%edi,1),%ecx
  102587:	89 ca                	mov    %ecx,%edx
  102589:	83 e9 20             	sub    $0x20,%ecx
  10258c:	83 f9 5e             	cmp    $0x5e,%ecx
  10258f:	76 02                	jbe    102593 <z_log_minimal_hexdump_print+0x88>
  102591:	b2 2e                	mov    $0x2e,%dl
  102593:	0f be d2             	movsbl %dl,%edx
  102596:	52                   	push   %edx
  102597:	68 25 14 11 00       	push   $0x111425
  10259c:	e8 c7 ef ff ff       	call   101568 <printk>
  1025a1:	59                   	pop    %ecx
  1025a2:	58                   	pop    %eax
  1025a3:	eb 0b                	jmp    1025b0 <z_log_minimal_hexdump_print+0xa5>
  1025a5:	68 21 14 11 00       	push   $0x111421
  1025aa:	e8 b9 ef ff ff       	call   101568 <printk>
  1025af:	5a                   	pop    %edx
  1025b0:	47                   	inc    %edi
  1025b1:	83 ff 08             	cmp    $0x8,%edi
  1025b4:	75 c9                	jne    10257f <z_log_minimal_hexdump_print+0x74>
  1025b6:	68 4b 23 11 00       	push   $0x11234b
  1025bb:	e8 a8 ef ff ff       	call   101568 <printk>
  1025c0:	58                   	pop    %eax
  1025c1:	83 fb 07             	cmp    $0x7,%ebx
  1025c4:	76 08                	jbe    1025ce <z_log_minimal_hexdump_print+0xc3>
  1025c6:	83 eb 08             	sub    $0x8,%ebx
  1025c9:	e9 46 ff ff ff       	jmp    102514 <z_log_minimal_hexdump_print+0x9>
  1025ce:	8d 65 f4             	lea    -0xc(%ebp),%esp
  1025d1:	5b                   	pop    %ebx
  1025d2:	5e                   	pop    %esi
  1025d3:	5f                   	pop    %edi
  1025d4:	5d                   	pop    %ebp
  1025d5:	c3                   	ret

001025d6 <sys_trace_idle>:
  1025d6:	c3                   	ret

001025d7 <arch_cpu_idle>:
  1025d7:	55                   	push   %ebp
  1025d8:	89 e5                	mov    %esp,%ebp
  1025da:	e8 f7 ff ff ff       	call   1025d6 <sys_trace_idle>
  1025df:	fb                   	sti
  1025e0:	f4                   	hlt
  1025e1:	5d                   	pop    %ebp
  1025e2:	c3                   	ret

001025e3 <z_prep_c>:
  1025e3:	55                   	push   %ebp
  1025e4:	31 c9                	xor    %ecx,%ecx
  1025e6:	89 e5                	mov    %esp,%ebp
  1025e8:	53                   	push   %ebx
  1025e9:	89 0d a0 48 12 00    	mov    %ecx,0x1248a0
  1025ef:	8b 5d 08             	mov    0x8(%ebp),%ebx
  1025f2:	e8 43 11 00 00       	call   10373a <z_x86_mmu_init>
  1025f7:	6a 00                	push   $0x0
  1025f9:	e8 33 2c 00 00       	call   105231 <z_loapic_enable>
  1025fe:	83 3b 01             	cmpl   $0x1,(%ebx)
  102601:	58                   	pop    %eax
  102602:	75 09                	jne    10260d <z_prep_c+0x2a>
  102604:	ff 73 04             	push   0x4(%ebx)
  102607:	e8 f9 04 00 00       	call   102b05 <z_multiboot_init>
  10260c:	5a                   	pop    %edx
  10260d:	e8 98 16 00 00       	call   103caa <z_x86_early_serial_init>
  102612:	6a 0a                	push   $0xa
  102614:	e8 4d 16 00 00       	call   103c66 <arch_printk_char_out>
  102619:	c7 04 24 00 c0 13 00 	movl   $0x13c000,(%esp)
  102620:	e8 16 11 00 00       	call   10373b <z_x86_set_stack_guard>
  102625:	58                   	pop    %eax
  102626:	e8 6f 45 00 00       	call   106b9a <z_cstart>

0010262b <arch_system_halt>:
  10262b:	55                   	push   %ebp
  10262c:	89 e5                	mov    %esp,%ebp
  10262e:	8b 45 08             	mov    0x8(%ebp),%eax
  102631:	e7 f4                	out    %eax,$0xf4

00102633 <z_x86_check_stack_bounds>:
  102633:	55                   	push   %ebp
  102634:	a1 a8 48 12 00       	mov    0x1248a8,%eax
  102639:	89 e5                	mov    %esp,%ebp
  10263b:	53                   	push   %ebx
  10263c:	85 c0                	test   %eax,%eax
  10263e:	8b 5d 08             	mov    0x8(%ebp),%ebx
  102641:	8b 4d 10             	mov    0x10(%ebp),%ecx
  102644:	74 09                	je     10264f <z_x86_check_stack_bounds+0x1c>
  102646:	83 3d a0 48 12 00 00 	cmpl   $0x0,0x1248a0
  10264d:	74 0c                	je     10265b <z_x86_check_stack_bounds+0x28>
  10264f:	ba 00 d0 13 00       	mov    $0x13d000,%edx
  102654:	b9 00 d8 13 00       	mov    $0x13d800,%ecx
  102659:	eb 1e                	jmp    102679 <z_x86_check_stack_bounds+0x46>
  10265b:	8b 50 64             	mov    0x64(%eax),%edx
  10265e:	80 e1 03             	and    $0x3,%cl
  102661:	89 d1                	mov    %edx,%ecx
  102663:	75 0e                	jne    102673 <z_x86_check_stack_bounds+0x40>
  102665:	f6 40 0c 04          	testb  $0x4,0xc(%eax)
  102669:	74 08                	je     102673 <z_x86_check_stack_bounds+0x40>
  10266b:	81 ea 00 10 00 00    	sub    $0x1000,%edx
  102671:	eb 06                	jmp    102679 <z_x86_check_stack_bounds+0x46>
  102673:	03 48 68             	add    0x68(%eax),%ecx
  102676:	83 e1 fc             	and    $0xfffffffc,%ecx
  102679:	b8 01 00 00 00       	mov    $0x1,%eax
  10267e:	39 da                	cmp    %ebx,%edx
  102680:	73 0a                	jae    10268c <z_x86_check_stack_bounds+0x59>
  102682:	03 5d 0c             	add    0xc(%ebp),%ebx
  102685:	31 c0                	xor    %eax,%eax
  102687:	39 d9                	cmp    %ebx,%ecx
  102689:	0f 92 c0             	setb   %al
  10268c:	5b                   	pop    %ebx
  10268d:	83 e0 01             	and    $0x1,%eax
  102690:	5d                   	pop    %ebp
  102691:	c3                   	ret

00102692 <z_x86_check_guard_page>:
  102692:	55                   	push   %ebp
  102693:	89 e5                	mov    %esp,%ebp
  102695:	56                   	push   %esi
  102696:	8b 35 a8 48 12 00    	mov    0x1248a8,%esi
  10269c:	53                   	push   %ebx
  10269d:	8b 4d 08             	mov    0x8(%ebp),%ecx
  1026a0:	8b 56 70             	mov    0x70(%esi),%edx
  1026a3:	8d 82 00 f0 ff ff    	lea    -0x1000(%edx),%eax
  1026a9:	39 c1                	cmp    %eax,%ecx
  1026ab:	0f 93 c0             	setae  %al
  1026ae:	39 d1                	cmp    %edx,%ecx
  1026b0:	0f 92 c3             	setb   %bl
  1026b3:	20 d8                	and    %bl,%al
  1026b5:	75 15                	jne    1026cc <z_x86_check_guard_page+0x3a>
  1026b7:	03 56 74             	add    0x74(%esi),%edx
  1026ba:	8d 82 00 10 00 00    	lea    0x1000(%edx),%eax
  1026c0:	39 c1                	cmp    %eax,%ecx
  1026c2:	0f 92 c0             	setb   %al
  1026c5:	39 d1                	cmp    %edx,%ecx
  1026c7:	0f 93 c2             	setae  %dl
  1026ca:	21 d0                	and    %edx,%eax
  1026cc:	5b                   	pop    %ebx
  1026cd:	5e                   	pop    %esi
  1026ce:	5d                   	pop    %ebp
  1026cf:	c3                   	ret

001026d0 <z_x86_fatal_error>:
  1026d0:	55                   	push   %ebp
  1026d1:	89 e5                	mov    %esp,%ebp
  1026d3:	57                   	push   %edi
  1026d4:	56                   	push   %esi
  1026d5:	53                   	push   %ebx
  1026d6:	50                   	push   %eax
  1026d7:	8b 5d 0c             	mov    0xc(%ebp),%ebx
  1026da:	85 db                	test   %ebx,%ebx
  1026dc:	0f 84 06 01 00 00    	je     1027e8 <z_x86_fatal_error+0x118>
  1026e2:	ff 73 14             	push   0x14(%ebx)
  1026e5:	ff 73 1c             	push   0x1c(%ebx)
  1026e8:	ff 73 08             	push   0x8(%ebx)
  1026eb:	ff 73 18             	push   0x18(%ebx)
  1026ee:	6a 45                	push   $0x45
  1026f0:	68 28 14 11 00       	push   $0x111428
  1026f5:	e8 fe fd ff ff       	call   1024f8 <z_log_minimal_printk>
  1026fa:	83 c4 18             	add    $0x18,%esp
  1026fd:	ff 33                	push   (%ebx)
  1026ff:	ff 73 04             	push   0x4(%ebx)
  102702:	ff 73 10             	push   0x10(%ebx)
  102705:	ff 73 0c             	push   0xc(%ebx)
  102708:	6a 45                	push   $0x45
  10270a:	68 60 14 11 00       	push   $0x111460
  10270f:	e8 e4 fd ff ff       	call   1024f8 <z_log_minimal_printk>
  102714:	8b 43 28             	mov    0x28(%ebx),%eax
  102717:	83 c4 18             	add    $0x18,%esp
  10271a:	a8 03                	test   $0x3,%al
  10271c:	74 0e                	je     10272c <z_x86_fatal_error+0x5c>
  10271e:	8b 15 a8 48 12 00    	mov    0x1248a8,%edx
  102724:	8b 92 98 00 00 00    	mov    0x98(%edx),%edx
  10272a:	eb 03                	jmp    10272f <z_x86_fatal_error+0x5f>
  10272c:	0f 20 da             	mov    %cr3,%edx
  10272f:	52                   	push   %edx
  102730:	0f b7 c0             	movzwl %ax,%eax
  102733:	50                   	push   %eax
  102734:	ff 73 2c             	push   0x2c(%ebx)
  102737:	6a 45                	push   $0x45
  102739:	68 98 14 11 00       	push   $0x111498
  10273e:	e8 b5 fd ff ff       	call   1024f8 <z_log_minimal_printk>
  102743:	83 c4 14             	add    $0x14,%esp
  102746:	6a 45                	push   $0x45
  102748:	68 c4 14 11 00       	push   $0x1114c4
  10274d:	e8 a6 fd ff ff       	call   1024f8 <z_log_minimal_printk>
  102752:	5f                   	pop    %edi
  102753:	58                   	pop    %eax
  102754:	ff 73 24             	push   0x24(%ebx)
  102757:	6a 45                	push   $0x45
  102759:	68 d5 14 11 00       	push   $0x1114d5
  10275e:	e8 95 fd ff ff       	call   1024f8 <z_log_minimal_printk>
  102763:	8b 73 04             	mov    0x4(%ebx),%esi
  102766:	83 c4 0c             	add    $0xc,%esp
  102769:	8b 7b 28             	mov    0x28(%ebx),%edi
  10276c:	85 f6                	test   %esi,%esi
  10276e:	74 1b                	je     10278b <z_x86_fatal_error+0xbb>
  102770:	0f b7 ff             	movzwl %di,%edi
  102773:	c7 45 f0 08 00 00 00 	movl   $0x8,-0x10(%ebp)
  10277a:	f7 c6 03 00 00 00    	test   $0x3,%esi
  102780:	74 46                	je     1027c8 <z_x86_fatal_error+0xf8>
  102782:	6a 45                	push   $0x45
  102784:	68 e6 14 11 00       	push   $0x1114e6
  102789:	eb 07                	jmp    102792 <z_x86_fatal_error+0xc2>
  10278b:	6a 45                	push   $0x45
  10278d:	68 ff 14 11 00       	push   $0x1114ff
  102792:	e8 61 fd ff ff       	call   1024f8 <z_log_minimal_printk>
  102797:	59                   	pop    %ecx
  102798:	5e                   	pop    %esi
  102799:	eb 4d                	jmp    1027e8 <z_x86_fatal_error+0x118>
  10279b:	8b 46 04             	mov    0x4(%esi),%eax
  10279e:	85 c0                	test   %eax,%eax
  1027a0:	74 46                	je     1027e8 <z_x86_fatal_error+0x118>
  1027a2:	ff 76 08             	push   0x8(%esi)
  1027a5:	50                   	push   %eax
  1027a6:	6a 45                	push   $0x45
  1027a8:	68 2f 15 11 00       	push   $0x11152f
  1027ad:	e8 46 fd ff ff       	call   1024f8 <z_log_minimal_printk>
  1027b2:	83 c4 10             	add    $0x10,%esp
  1027b5:	ff 4d f0             	decl   -0x10(%ebp)
  1027b8:	8b 36                	mov    (%esi),%esi
  1027ba:	74 2c                	je     1027e8 <z_x86_fatal_error+0x118>
  1027bc:	f7 c6 03 00 00 00    	test   $0x3,%esi
  1027c2:	75 be                	jne    102782 <z_x86_fatal_error+0xb2>
  1027c4:	85 f6                	test   %esi,%esi
  1027c6:	74 20                	je     1027e8 <z_x86_fatal_error+0x118>
  1027c8:	57                   	push   %edi
  1027c9:	6a 0c                	push   $0xc
  1027cb:	56                   	push   %esi
  1027cc:	e8 62 fe ff ff       	call   102633 <z_x86_check_stack_bounds>
  1027d1:	83 c4 0c             	add    $0xc,%esp
  1027d4:	84 c0                	test   %al,%al
  1027d6:	74 c3                	je     10279b <z_x86_fatal_error+0xcb>
  1027d8:	56                   	push   %esi
  1027d9:	6a 45                	push   $0x45
  1027db:	68 12 15 11 00       	push   $0x111512
  1027e0:	e8 13 fd ff ff       	call   1024f8 <z_log_minimal_printk>
  1027e5:	83 c4 0c             	add    $0xc,%esp
  1027e8:	53                   	push   %ebx
  1027e9:	ff 75 08             	push   0x8(%ebp)
  1027ec:	e8 80 3f 00 00       	call   106771 <z_fatal_error>
  1027f1:	58                   	pop    %eax
  1027f2:	5a                   	pop    %edx

001027f3 <z_x86_unhandled_cpu_exception>:
  1027f3:	55                   	push   %ebp
  1027f4:	89 e5                	mov    %esp,%ebp
  1027f6:	53                   	push   %ebx
  1027f7:	8b 5d 0c             	mov    0xc(%ebp),%ebx
  1027fa:	8b 55 08             	mov    0x8(%ebp),%edx
  1027fd:	83 fa 1e             	cmp    $0x1e,%edx
  102800:	8b 43 20             	mov    0x20(%ebx),%eax
  102803:	0f 87 d9 00 00 00    	ja     1028e2 <z_x86_unhandled_cpu_exception+0xef>
  102809:	ff 24 95 30 07 11 00 	jmp    *0x110730(,%edx,4)
  102810:	6a 45                	push   $0x45
  102812:	68 49 15 11 00       	push   $0x111549
  102817:	eb 07                	jmp    102820 <z_x86_unhandled_cpu_exception+0x2d>
  102819:	6a 45                	push   $0x45
  10281b:	68 5d 15 11 00       	push   $0x11155d
  102820:	e8 d3 fc ff ff       	call   1024f8 <z_log_minimal_printk>
  102825:	58                   	pop    %eax
  102826:	5a                   	pop    %edx
  102827:	e9 c6 00 00 00       	jmp    1028f2 <z_x86_unhandled_cpu_exception+0xff>
  10282c:	6a 45                	push   $0x45
  10282e:	68 68 15 11 00       	push   $0x111568
  102833:	eb eb                	jmp    102820 <z_x86_unhandled_cpu_exception+0x2d>
  102835:	6a 45                	push   $0x45
  102837:	68 84 15 11 00       	push   $0x111584
  10283c:	eb e2                	jmp    102820 <z_x86_unhandled_cpu_exception+0x2d>
  10283e:	6a 45                	push   $0x45
  102840:	68 94 15 11 00       	push   $0x111594
  102845:	eb d9                	jmp    102820 <z_x86_unhandled_cpu_exception+0x2d>
  102847:	6a 45                	push   $0x45
  102849:	68 a2 15 11 00       	push   $0x1115a2
  10284e:	eb d0                	jmp    102820 <z_x86_unhandled_cpu_exception+0x2d>
  102850:	6a 45                	push   $0x45
  102852:	68 bc 15 11 00       	push   $0x1115bc
  102857:	eb c7                	jmp    102820 <z_x86_unhandled_cpu_exception+0x2d>
  102859:	6a 45                	push   $0x45
  10285b:	68 d0 15 11 00       	push   $0x1115d0
  102860:	eb be                	jmp    102820 <z_x86_unhandled_cpu_exception+0x2d>
  102862:	50                   	push   %eax
  102863:	6a 45                	push   $0x45
  102865:	68 fe 15 11 00       	push   $0x1115fe
  10286a:	eb 7e                	jmp    1028ea <z_x86_unhandled_cpu_exception+0xf7>
  10286c:	6a 45                	push   $0x45
  10286e:	68 1d 16 11 00       	push   $0x11161d
  102873:	eb ab                	jmp    102820 <z_x86_unhandled_cpu_exception+0x2d>
  102875:	50                   	push   %eax
  102876:	6a 45                	push   $0x45
  102878:	68 3f 16 11 00       	push   $0x11163f
  10287d:	eb 6b                	jmp    1028ea <z_x86_unhandled_cpu_exception+0xf7>
  10287f:	50                   	push   %eax
  102880:	6a 45                	push   $0x45
  102882:	68 5d 16 11 00       	push   $0x11165d
  102887:	eb 61                	jmp    1028ea <z_x86_unhandled_cpu_exception+0xf7>
  102889:	6a 45                	push   $0x45
  10288b:	68 83 16 11 00       	push   $0x111683
  102890:	eb 8e                	jmp    102820 <z_x86_unhandled_cpu_exception+0x2d>
  102892:	50                   	push   %eax
  102893:	6a 45                	push   $0x45
  102895:	68 9c 16 11 00       	push   $0x11169c
  10289a:	eb 4e                	jmp    1028ea <z_x86_unhandled_cpu_exception+0xf7>
  10289c:	6a 45                	push   $0x45
  10289e:	68 c7 16 11 00       	push   $0x1116c7
  1028a3:	e9 78 ff ff ff       	jmp    102820 <z_x86_unhandled_cpu_exception+0x2d>
  1028a8:	50                   	push   %eax
  1028a9:	6a 45                	push   $0x45
  1028ab:	68 e9 16 11 00       	push   $0x1116e9
  1028b0:	eb 38                	jmp    1028ea <z_x86_unhandled_cpu_exception+0xf7>
  1028b2:	6a 45                	push   $0x45
  1028b4:	68 0b 17 11 00       	push   $0x11170b
  1028b9:	e9 62 ff ff ff       	jmp    102820 <z_x86_unhandled_cpu_exception+0x2d>
  1028be:	6a 45                	push   $0x45
  1028c0:	68 1e 17 11 00       	push   $0x11171e
  1028c5:	e9 56 ff ff ff       	jmp    102820 <z_x86_unhandled_cpu_exception+0x2d>
  1028ca:	6a 45                	push   $0x45
  1028cc:	68 41 17 11 00       	push   $0x111741
  1028d1:	e9 4a ff ff ff       	jmp    102820 <z_x86_unhandled_cpu_exception+0x2d>
  1028d6:	6a 45                	push   $0x45
  1028d8:	68 5f 17 11 00       	push   $0x11175f
  1028dd:	e9 3e ff ff ff       	jmp    102820 <z_x86_unhandled_cpu_exception+0x2d>
  1028e2:	50                   	push   %eax
  1028e3:	6a 45                	push   $0x45
  1028e5:	68 77 17 11 00       	push   $0x111777
  1028ea:	e8 09 fc ff ff       	call   1024f8 <z_log_minimal_printk>
  1028ef:	83 c4 0c             	add    $0xc,%esp
  1028f2:	53                   	push   %ebx
  1028f3:	6a 00                	push   $0x0
  1028f5:	e8 d6 fd ff ff       	call   1026d0 <z_x86_fatal_error>

001028fa <z_x86_page_fault_handler>:
  1028fa:	55                   	push   %ebp
  1028fb:	89 e5                	mov    %esp,%ebp
  1028fd:	57                   	push   %edi
  1028fe:	56                   	push   %esi
  1028ff:	53                   	push   %ebx
  102900:	8b 5d 08             	mov    0x8(%ebp),%ebx
  102903:	8b 43 24             	mov    0x24(%ebx),%eax
  102906:	3d 99 3f 10 00       	cmp    $0x103f99,%eax
  10290b:	72 16                	jb     102923 <z_x86_page_fault_handler+0x29>
  10290d:	3d 9d 3f 10 00       	cmp    $0x103f9d,%eax
  102912:	73 0f                	jae    102923 <z_x86_page_fault_handler+0x29>
  102914:	c7 43 24 ae 3f 10 00 	movl   $0x103fae,0x24(%ebx)
  10291b:	8d 65 f4             	lea    -0xc(%ebp),%esp
  10291e:	5b                   	pop    %ebx
  10291f:	5e                   	pop    %esi
  102920:	5f                   	pop    %edi
  102921:	5d                   	pop    %ebp
  102922:	c3                   	ret
  102923:	0f 20 d7             	mov    %cr2,%edi
  102926:	8b 73 20             	mov    0x20(%ebx),%esi
  102929:	56                   	push   %esi
  10292a:	57                   	push   %edi
  10292b:	6a 45                	push   $0x45
  10292d:	68 b7 17 11 00       	push   $0x1117b7
  102932:	e8 c1 fb ff ff       	call   1024f8 <z_log_minimal_printk>
  102937:	83 c4 10             	add    $0x10,%esp
  10293a:	f7 c6 08 00 00 00    	test   $0x8,%esi
  102940:	74 09                	je     10294b <z_x86_page_fault_handler+0x51>
  102942:	6a 45                	push   $0x45
  102944:	68 e8 17 11 00       	push   $0x1117e8
  102949:	eb 76                	jmp    1029c1 <z_x86_page_fault_handler+0xc7>
  10294b:	f7 c6 01 00 00 00    	test   $0x1,%esi
  102951:	75 0e                	jne    102961 <z_x86_page_fault_handler+0x67>
  102953:	6a 45                	push   $0x45
  102955:	68 0e 18 11 00       	push   $0x11180e
  10295a:	e8 99 fb ff ff       	call   1024f8 <z_log_minimal_printk>
  10295f:	58                   	pop    %eax
  102960:	5a                   	pop    %edx
  102961:	b8 9f 17 11 00       	mov    $0x11179f,%eax
  102966:	f7 c6 10 00 00 00    	test   $0x10,%esi
  10296c:	75 12                	jne    102980 <z_x86_page_fault_handler+0x86>
  10296e:	b8 c7 12 11 00       	mov    $0x1112c7,%eax
  102973:	f7 c6 02 00 00 00    	test   $0x2,%esi
  102979:	75 05                	jne    102980 <z_x86_page_fault_handler+0x86>
  10297b:	b8 cc 3b 11 00       	mov    $0x113bcc,%eax
  102980:	ba a7 17 11 00       	mov    $0x1117a7,%edx
  102985:	f7 c6 04 00 00 00    	test   $0x4,%esi
  10298b:	75 05                	jne    102992 <z_x86_page_fault_handler+0x98>
  10298d:	ba ac 17 11 00       	mov    $0x1117ac,%edx
  102992:	50                   	push   %eax
  102993:	52                   	push   %edx
  102994:	6a 45                	push   $0x45
  102996:	68 3d 18 11 00       	push   $0x11183d
  10299b:	e8 58 fb ff ff       	call   1024f8 <z_log_minimal_printk>
  1029a0:	83 c4 10             	add    $0x10,%esp
  1029a3:	f7 c6 20 00 00 00    	test   $0x20,%esi
  1029a9:	74 09                	je     1029b4 <z_x86_page_fault_handler+0xba>
  1029ab:	6a 45                	push   $0x45
  1029ad:	68 70 18 11 00       	push   $0x111870
  1029b2:	eb 0d                	jmp    1029c1 <z_x86_page_fault_handler+0xc7>
  1029b4:	0f ba e6 0f          	bt     $0xf,%esi
  1029b8:	73 0e                	jae    1029c8 <z_x86_page_fault_handler+0xce>
  1029ba:	6a 45                	push   $0x45
  1029bc:	68 8f 18 11 00       	push   $0x11188f
  1029c1:	e8 32 fb ff ff       	call   1024f8 <z_log_minimal_printk>
  1029c6:	59                   	pop    %ecx
  1029c7:	5e                   	pop    %esi
  1029c8:	f6 43 28 03          	testb  $0x3,0x28(%ebx)
  1029cc:	74 0d                	je     1029db <z_x86_page_fault_handler+0xe1>
  1029ce:	a1 a8 48 12 00       	mov    0x1248a8,%eax
  1029d3:	8b b0 98 00 00 00    	mov    0x98(%eax),%esi
  1029d9:	eb 03                	jmp    1029de <z_x86_page_fault_handler+0xe4>
  1029db:	0f 20 de             	mov    %cr3,%esi
  1029de:	81 fe ff ff ff 01    	cmp    $0x1ffffff,%esi
  1029e4:	76 3a                	jbe    102a20 <z_x86_page_fault_handler+0x126>
  1029e6:	68 9c 00 00 00       	push   $0x9c
  1029eb:	68 b1 18 11 00       	push   $0x1118b1
  1029f0:	68 e8 18 11 00       	push   $0x1118e8
  1029f5:	68 ee 10 11 00       	push   $0x1110ee
  1029fa:	e8 de eb ff ff       	call   1015dd <assert_print>
  1029ff:	83 c4 10             	add    $0x10,%esp
  102a02:	56                   	push   %esi
  102a03:	68 0a 19 11 00       	push   $0x11190a
  102a08:	e8 d0 eb ff ff       	call   1015dd <assert_print>
  102a0d:	5f                   	pop    %edi
  102a0e:	58                   	pop    %eax
  102a0f:	68 9c 00 00 00       	push   $0x9c
  102a14:	68 b1 18 11 00       	push   $0x1118b1
  102a19:	e8 b0 eb ff ff       	call   1015ce <assert_post_action>
  102a1e:	58                   	pop    %eax
  102a1f:	5a                   	pop    %edx
  102a20:	57                   	push   %edi
  102a21:	56                   	push   %esi
  102a22:	e8 68 0a 00 00       	call   10348f <z_x86_dump_mmu_flags>
  102a27:	59                   	pop    %ecx
  102a28:	0f b7 43 28          	movzwl 0x28(%ebx),%eax
  102a2c:	5e                   	pop    %esi
  102a2d:	50                   	push   %eax
  102a2e:	6a 00                	push   $0x0
  102a30:	ff 33                	push   (%ebx)
  102a32:	e8 fc fb ff ff       	call   102633 <z_x86_check_stack_bounds>
  102a37:	83 c4 0c             	add    $0xc,%esp
  102a3a:	84 c0                	test   %al,%al
  102a3c:	74 05                	je     102a43 <z_x86_page_fault_handler+0x149>
  102a3e:	53                   	push   %ebx
  102a3f:	6a 02                	push   $0x2
  102a41:	eb 11                	jmp    102a54 <z_x86_page_fault_handler+0x15a>
  102a43:	0f 20 d0             	mov    %cr2,%eax
  102a46:	50                   	push   %eax
  102a47:	e8 46 fc ff ff       	call   102692 <z_x86_check_guard_page>
  102a4c:	5a                   	pop    %edx
  102a4d:	84 c0                	test   %al,%al
  102a4f:	75 ed                	jne    102a3e <z_x86_page_fault_handler+0x144>
  102a51:	53                   	push   %ebx
  102a52:	6a 00                	push   $0x0
  102a54:	e8 77 fc ff ff       	call   1026d0 <z_x86_fatal_error>

00102a59 <z_x86_do_kernel_oops>:
  102a59:	55                   	push   %ebp
  102a5a:	89 e5                	mov    %esp,%ebp
  102a5c:	8b 55 08             	mov    0x8(%ebp),%edx
  102a5f:	8b 02                	mov    (%edx),%eax
  102a61:	f6 42 28 03          	testb  $0x3,0x28(%edx)
  102a65:	8b 00                	mov    (%eax),%eax
  102a67:	74 0d                	je     102a76 <z_x86_do_kernel_oops+0x1d>
  102a69:	8d 48 fe             	lea    -0x2(%eax),%ecx
  102a6c:	83 f9 01             	cmp    $0x1,%ecx
  102a6f:	76 05                	jbe    102a76 <z_x86_do_kernel_oops+0x1d>
  102a71:	b8 03 00 00 00       	mov    $0x3,%eax
  102a76:	52                   	push   %edx
  102a77:	50                   	push   %eax
  102a78:	e8 53 fc ff ff       	call   1026d0 <z_x86_fatal_error>

00102a7d <__get_cpuid_max.constprop.0>:
  102a7d:	9c                   	pushf
  102a7e:	9c                   	pushf
  102a7f:	58                   	pop    %eax
  102a80:	89 c2                	mov    %eax,%edx
  102a82:	35 00 00 20 00       	xor    $0x200000,%eax
  102a87:	50                   	push   %eax
  102a88:	9d                   	popf
  102a89:	9c                   	pushf
  102a8a:	58                   	pop    %eax
  102a8b:	9d                   	popf
  102a8c:	31 d0                	xor    %edx,%eax
  102a8e:	25 00 00 20 00       	and    $0x200000,%eax
  102a93:	74 0b                	je     102aa0 <__get_cpuid_max.constprop.0+0x23>
  102a95:	55                   	push   %ebp
  102a96:	31 c0                	xor    %eax,%eax
  102a98:	89 e5                	mov    %esp,%ebp
  102a9a:	53                   	push   %ebx
  102a9b:	0f a2                	cpuid
  102a9d:	5b                   	pop    %ebx
  102a9e:	5d                   	pop    %ebp
  102a9f:	c3                   	ret
  102aa0:	c3                   	ret

00102aa1 <z_x86_cpuid_extended_features>:
  102aa1:	55                   	push   %ebp
  102aa2:	89 e5                	mov    %esp,%ebp
  102aa4:	53                   	push   %ebx
  102aa5:	e8 d3 ff ff ff       	call   102a7d <__get_cpuid_max.constprop.0>
  102aaa:	89 c2                	mov    %eax,%edx
  102aac:	31 c0                	xor    %eax,%eax
  102aae:	83 fa 06             	cmp    $0x6,%edx
  102ab1:	76 09                	jbe    102abc <z_x86_cpuid_extended_features+0x1b>
  102ab3:	b8 07 00 00 00       	mov    $0x7,%eax
  102ab8:	0f a2                	cpuid
  102aba:	89 d0                	mov    %edx,%eax
  102abc:	5b                   	pop    %ebx
  102abd:	5d                   	pop    %ebp
  102abe:	c3                   	ret

00102abf <spec_ctrl_init>:
  102abf:	55                   	push   %ebp
  102ac0:	89 e5                	mov    %esp,%ebp
  102ac2:	57                   	push   %edi
  102ac3:	56                   	push   %esi
  102ac4:	e8 d8 ff ff ff       	call   102aa1 <z_x86_cpuid_extended_features>
  102ac9:	85 c0                	test   %eax,%eax
  102acb:	78 0a                	js     102ad7 <spec_ctrl_init+0x18>
  102acd:	0f ba e0 1a          	bt     $0x1a,%eax
  102ad1:	73 2c                	jae    102aff <spec_ctrl_init+0x40>
  102ad3:	31 c0                	xor    %eax,%eax
  102ad5:	eb 10                	jmp    102ae7 <spec_ctrl_init+0x28>
  102ad7:	0f ba e0 1a          	bt     $0x1a,%eax
  102adb:	be 04 00 00 00       	mov    $0x4,%esi
  102ae0:	73 0a                	jae    102aec <spec_ctrl_init+0x2d>
  102ae2:	b8 04 00 00 00       	mov    $0x4,%eax
  102ae7:	83 c8 01             	or     $0x1,%eax
  102aea:	89 c6                	mov    %eax,%esi
  102aec:	b9 48 00 00 00       	mov    $0x48,%ecx
  102af1:	0f 32                	rdmsr
  102af3:	31 ff                	xor    %edi,%edi
  102af5:	09 c6                	or     %eax,%esi
  102af7:	09 d7                	or     %edx,%edi
  102af9:	89 f0                	mov    %esi,%eax
  102afb:	89 fa                	mov    %edi,%edx
  102afd:	0f 30                	wrmsr
  102aff:	5e                   	pop    %esi
  102b00:	31 c0                	xor    %eax,%eax
  102b02:	5f                   	pop    %edi
  102b03:	5d                   	pop    %ebp
  102b04:	c3                   	ret

00102b05 <z_multiboot_init>:
  102b05:	55                   	push   %ebp
  102b06:	89 e5                	mov    %esp,%ebp
  102b08:	57                   	push   %edi
  102b09:	56                   	push   %esi
  102b0a:	53                   	push   %ebx
  102b0b:	8d 45 ec             	lea    -0x14(%ebp),%eax
  102b0e:	83 ec 08             	sub    $0x8,%esp
  102b11:	6a 02                	push   $0x2
  102b13:	6a 74                	push   $0x74
  102b15:	ff 75 08             	push   0x8(%ebp)
  102b18:	50                   	push   %eax
  102b19:	e8 58 96 00 00       	call   10c176 <k_mem_map_phys_bare>
  102b1e:	8b 55 ec             	mov    -0x14(%ebp),%edx
  102b21:	83 c4 10             	add    $0x10,%esp
  102b24:	85 d2                	test   %edx,%edx
  102b26:	0f 84 46 01 00 00    	je     102c72 <z_multiboot_init+0x16d>
  102b2c:	b8 40 46 12 00       	mov    $0x124640,%eax
  102b31:	b9 1d 00 00 00       	mov    $0x1d,%ecx
  102b36:	89 c7                	mov    %eax,%edi
  102b38:	89 d6                	mov    %edx,%esi
  102b3a:	f3 a5                	rep movsl %ds:(%esi),%es:(%edi)
  102b3c:	f6 02 40             	testb  $0x40,(%edx)
  102b3f:	0f 84 94 00 00 00    	je     102bd9 <z_multiboot_init+0xd4>
  102b45:	83 3d 94 cc 12 00 01 	cmpl   $0x1,0x12cc94
  102b4c:	0f 87 87 00 00 00    	ja     102bd9 <z_multiboot_init+0xd4>
  102b52:	6a 02                	push   $0x2
  102b54:	8d 45 f0             	lea    -0x10(%ebp),%eax
  102b57:	ff 72 2c             	push   0x2c(%edx)
  102b5a:	ff 72 30             	push   0x30(%edx)
  102b5d:	bf 00 b0 11 00       	mov    $0x11b000,%edi
  102b62:	31 f6                	xor    %esi,%esi
  102b64:	50                   	push   %eax
  102b65:	e8 0c 96 00 00       	call   10c176 <k_mem_map_phys_bare>
  102b6a:	8b 45 ec             	mov    -0x14(%ebp),%eax
  102b6d:	8b 4d f0             	mov    -0x10(%ebp),%ecx
  102b70:	83 c4 10             	add    $0x10,%esp
  102b73:	8b 58 2c             	mov    0x2c(%eax),%ebx
  102b76:	01 cb                	add    %ecx,%ebx
  102b78:	39 d9                	cmp    %ebx,%ecx
  102b7a:	73 40                	jae    102bbc <z_multiboot_init+0xb7>
  102b7c:	83 fe 3f             	cmp    $0x3f,%esi
  102b7f:	7f 3b                	jg     102bbc <z_multiboot_init+0xb7>
  102b81:	8b 41 04             	mov    0x4(%ecx),%eax
  102b84:	8b 51 08             	mov    0x8(%ecx),%edx
  102b87:	89 57 04             	mov    %edx,0x4(%edi)
  102b8a:	89 07                	mov    %eax,(%edi)
  102b8c:	8b 41 0c             	mov    0xc(%ecx),%eax
  102b8f:	8b 51 10             	mov    0x10(%ecx),%edx
  102b92:	89 57 0c             	mov    %edx,0xc(%edi)
  102b95:	89 47 08             	mov    %eax,0x8(%edi)
  102b98:	8b 41 14             	mov    0x14(%ecx),%eax
  102b9b:	ba 05 00 00 00       	mov    $0x5,%edx
  102ba0:	48                   	dec    %eax
  102ba1:	83 f8 04             	cmp    $0x4,%eax
  102ba4:	77 07                	ja     102bad <z_multiboot_init+0xa8>
  102ba6:	0f b6 90 ac 07 11 00 	movzbl 0x1107ac(%eax),%edx
  102bad:	89 57 10             	mov    %edx,0x10(%edi)
  102bb0:	46                   	inc    %esi
  102bb1:	8b 01                	mov    (%ecx),%eax
  102bb3:	83 c7 14             	add    $0x14,%edi
  102bb6:	8d 4c 01 04          	lea    0x4(%ecx,%eax,1),%ecx
  102bba:	eb bc                	jmp    102b78 <z_multiboot_init+0x73>
  102bbc:	c7 05 94 cc 12 00 02 	movl   $0x2,0x12cc94
  102bc3:	00 00 00 
  102bc6:	83 fe 40             	cmp    $0x40,%esi
  102bc9:	74 0e                	je     102bd9 <z_multiboot_init+0xd4>
  102bcb:	6b c6 14             	imul   $0x14,%esi,%eax
  102bce:	31 ff                	xor    %edi,%edi
  102bd0:	46                   	inc    %esi
  102bd1:	89 b8 10 b0 11 00    	mov    %edi,0x11b010(%eax)
  102bd7:	eb ed                	jmp    102bc6 <z_multiboot_init+0xc1>
  102bd9:	8b 55 ec             	mov    -0x14(%ebp),%edx
  102bdc:	f6 02 01             	testb  $0x1,(%edx)
  102bdf:	0f 84 8d 00 00 00    	je     102c72 <z_multiboot_init+0x16d>
  102be5:	a1 94 cc 12 00       	mov    0x12cc94,%eax
  102bea:	85 c0                	test   %eax,%eax
  102bec:	0f 85 80 00 00 00    	jne    102c72 <z_multiboot_init+0x16d>
  102bf2:	31 c9                	xor    %ecx,%ecx
  102bf4:	31 db                	xor    %ebx,%ebx
  102bf6:	89 0d 00 b0 11 00    	mov    %ecx,0x11b000
  102bfc:	89 0d 04 b0 11 00    	mov    %ecx,0x11b004
  102c02:	8b 4a 04             	mov    0x4(%edx),%ecx
  102c05:	c7 05 10 b0 11 00 01 	movl   $0x1,0x11b010
  102c0c:	00 00 00 
  102c0f:	0f a4 cb 0a          	shld   $0xa,%ecx,%ebx
  102c13:	89 1d 0c b0 11 00    	mov    %ebx,0x11b00c
  102c19:	31 db                	xor    %ebx,%ebx
  102c1b:	c1 e1 0a             	shl    $0xa,%ecx
  102c1e:	89 1d 18 b0 11 00    	mov    %ebx,0x11b018
  102c24:	89 0d 08 b0 11 00    	mov    %ecx,0x11b008
  102c2a:	c7 05 14 b0 11 00 00 	movl   $0x100000,0x11b014
  102c31:	00 10 00 
  102c34:	8b 4a 08             	mov    0x8(%edx),%ecx
  102c37:	31 db                	xor    %ebx,%ebx
  102c39:	0f a4 cb 0a          	shld   $0xa,%ecx,%ebx
  102c3d:	c1 e1 0a             	shl    $0xa,%ecx
  102c40:	89 1d 20 b0 11 00    	mov    %ebx,0x11b020
  102c46:	89 0d 1c b0 11 00    	mov    %ecx,0x11b01c
  102c4c:	c7 05 24 b0 11 00 01 	movl   $0x1,0x11b024
  102c53:	00 00 00 
  102c56:	31 d2                	xor    %edx,%edx
  102c58:	83 c0 14             	add    $0x14,%eax
  102c5b:	89 90 24 b0 11 00    	mov    %edx,0x11b024(%eax)
  102c61:	3d d8 04 00 00       	cmp    $0x4d8,%eax
  102c66:	75 ee                	jne    102c56 <z_multiboot_init+0x151>
  102c68:	c7 05 94 cc 12 00 01 	movl   $0x1,0x12cc94
  102c6f:	00 00 00 
  102c72:	8d 65 f4             	lea    -0xc(%ebp),%esp
  102c75:	5b                   	pop    %ebx
  102c76:	5e                   	pop    %esi
  102c77:	5f                   	pop    %edi
  102c78:	5d                   	pop    %ebp
  102c79:	c3                   	ret

00102c7a <mark_addr_page_reserved>:
  102c7a:	89 d1                	mov    %edx,%ecx
  102c7c:	89 c2                	mov    %eax,%edx
  102c7e:	81 e2 00 f0 ff ff    	and    $0xfffff000,%edx
  102c84:	8d 84 08 ff 0f 00 00 	lea    0xfff(%eax,%ecx,1),%eax
  102c8b:	25 00 f0 ff ff       	and    $0xfffff000,%eax
  102c90:	39 c2                	cmp    %eax,%edx
  102c92:	73 1d                	jae    102cb1 <mark_addr_page_reserved+0x37>
  102c94:	81 fa ff ff ff 01    	cmp    $0x1ffffff,%edx
  102c9a:	77 0d                	ja     102ca9 <mark_addr_page_reserved+0x2f>
  102c9c:	89 d1                	mov    %edx,%ecx
  102c9e:	c1 e9 0c             	shr    $0xc,%ecx
  102ca1:	83 0c 8d 80 4a 12 00 	orl    $0x2,0x124a80(,%ecx,4)
  102ca8:	02 
  102ca9:	81 c2 00 10 00 00    	add    $0x1000,%edx
  102caf:	eb df                	jmp    102c90 <mark_addr_page_reserved+0x16>
  102cb1:	c3                   	ret

00102cb2 <str_append>:
  102cb2:	55                   	push   %ebp
  102cb3:	89 e5                	mov    %esp,%ebp
  102cb5:	56                   	push   %esi
  102cb6:	53                   	push   %ebx
  102cb7:	89 c6                	mov    %eax,%esi
  102cb9:	51                   	push   %ecx
  102cba:	89 d3                	mov    %edx,%ebx
  102cbc:	68 2e 19 11 00       	push   $0x11192e
  102cc1:	ff 32                	push   (%edx)
  102cc3:	ff 30                	push   (%eax)
  102cc5:	e8 b7 c3 00 00       	call   10f081 <snprintf>
  102cca:	8b 13                	mov    (%ebx),%edx
  102ccc:	83 c4 10             	add    $0x10,%esp
  102ccf:	39 d0                	cmp    %edx,%eax
  102cd1:	72 06                	jb     102cd9 <str_append+0x27>
  102cd3:	31 c0                	xor    %eax,%eax
  102cd5:	89 03                	mov    %eax,(%ebx)
  102cd7:	eb 06                	jmp    102cdf <str_append+0x2d>
  102cd9:	29 c2                	sub    %eax,%edx
  102cdb:	89 13                	mov    %edx,(%ebx)
  102cdd:	01 06                	add    %eax,(%esi)
  102cdf:	8d 65 f8             	lea    -0x8(%ebp),%esp
  102ce2:	5b                   	pop    %ebx
  102ce3:	5e                   	pop    %esi
  102ce4:	5d                   	pop    %ebp
  102ce5:	c3                   	ret

00102ce6 <k_mem_phys_addr>:
  102ce6:	3d ff ff 7f 00       	cmp    $0x7fffff,%eax
  102ceb:	76 3e                	jbe    102d2b <k_mem_phys_addr+0x45>
  102ced:	55                   	push   %ebp
  102cee:	89 e5                	mov    %esp,%ebp
  102cf0:	52                   	push   %edx
  102cf1:	89 45 fc             	mov    %eax,-0x4(%ebp)
  102cf4:	6a 69                	push   $0x69
  102cf6:	68 b1 18 11 00       	push   $0x1118b1
  102cfb:	68 31 19 11 00       	push   $0x111931
  102d00:	68 ee 10 11 00       	push   $0x1110ee
  102d05:	e8 d3 e8 ff ff       	call   1015dd <assert_print>
  102d0a:	83 c4 10             	add    $0x10,%esp
  102d0d:	8b 45 fc             	mov    -0x4(%ebp),%eax
  102d10:	50                   	push   %eax
  102d11:	68 4d 19 11 00       	push   $0x11194d
  102d16:	e8 c2 e8 ff ff       	call   1015dd <assert_print>
  102d1b:	59                   	pop    %ecx
  102d1c:	58                   	pop    %eax
  102d1d:	6a 69                	push   $0x69
  102d1f:	68 b1 18 11 00       	push   $0x1118b1
  102d24:	e8 a5 e8 ff ff       	call   1015ce <assert_post_action>
  102d29:	58                   	pop    %eax
  102d2a:	5a                   	pop    %edx
  102d2b:	c3                   	ret

00102d2c <k_mem_virt_addr>:
  102d2c:	3d ff ff ff 01       	cmp    $0x1ffffff,%eax
  102d31:	76 44                	jbe    102d77 <k_mem_virt_addr+0x4b>
  102d33:	55                   	push   %ebp
  102d34:	89 e5                	mov    %esp,%ebp
  102d36:	52                   	push   %edx
  102d37:	89 45 fc             	mov    %eax,-0x4(%ebp)
  102d3a:	68 9c 00 00 00       	push   $0x9c
  102d3f:	68 b1 18 11 00       	push   $0x1118b1
  102d44:	68 e8 18 11 00       	push   $0x1118e8
  102d49:	68 ee 10 11 00       	push   $0x1110ee
  102d4e:	e8 8a e8 ff ff       	call   1015dd <assert_print>
  102d53:	83 c4 10             	add    $0x10,%esp
  102d56:	8b 45 fc             	mov    -0x4(%ebp),%eax
  102d59:	50                   	push   %eax
  102d5a:	68 0a 19 11 00       	push   $0x11190a
  102d5f:	e8 79 e8 ff ff       	call   1015dd <assert_print>
  102d64:	59                   	pop    %ecx
  102d65:	58                   	pop    %eax
  102d66:	68 9c 00 00 00       	push   $0x9c
  102d6b:	68 b1 18 11 00       	push   $0x1118b1
  102d70:	e8 59 e8 ff ff       	call   1015ce <assert_post_action>
  102d75:	58                   	pop    %eax
  102d76:	5a                   	pop    %edx
  102d77:	c3                   	ret

00102d78 <copy_page_table>:
  102d78:	55                   	push   %ebp
  102d79:	89 e5                	mov    %esp,%ebp
  102d7b:	57                   	push   %edi
  102d7c:	56                   	push   %esi
  102d7d:	53                   	push   %ebx
  102d7e:	83 ec 10             	sub    $0x10,%esp
  102d81:	89 45 e8             	mov    %eax,-0x18(%ebp)
  102d84:	89 55 f0             	mov    %edx,-0x10(%ebp)
  102d87:	89 4d e4             	mov    %ecx,-0x1c(%ebp)
  102d8a:	83 f9 02             	cmp    $0x2,%ecx
  102d8d:	74 10                	je     102d9f <copy_page_table+0x27>
  102d8f:	6b c1 14             	imul   $0x14,%ecx,%eax
  102d92:	31 db                	xor    %ebx,%ebx
  102d94:	8d b0 80 01 11 00    	lea    0x110180(%eax),%esi
  102d9a:	e9 b0 00 00 00       	jmp    102e4f <copy_page_table+0xd7>
  102d9f:	31 d2                	xor    %edx,%edx
  102da1:	8b 45 f0             	mov    -0x10(%ebp),%eax
  102da4:	8b 5d f0             	mov    -0x10(%ebp),%ebx
  102da7:	8b 04 d0             	mov    (%eax,%edx,8),%eax
  102daa:	8b 5c d3 04          	mov    0x4(%ebx,%edx,8),%ebx
  102dae:	89 5d ec             	mov    %ebx,-0x14(%ebp)
  102db1:	89 c3                	mov    %eax,%ebx
  102db3:	83 e3 f9             	and    $0xfffffff9,%ebx
  102db6:	89 c1                	mov    %eax,%ecx
  102db8:	89 de                	mov    %ebx,%esi
  102dba:	8b 5d ec             	mov    -0x14(%ebp),%ebx
  102dbd:	81 e3 ff ff ff 7f    	and    $0x7fffffff,%ebx
  102dc3:	81 e1 00 02 00 00    	and    $0x200,%ecx
  102dc9:	89 df                	mov    %ebx,%edi
  102dcb:	83 c9 00             	or     $0x0,%ecx
  102dce:	74 03                	je     102dd3 <copy_page_table+0x5b>
  102dd0:	83 ce 02             	or     $0x2,%esi
  102dd3:	89 c1                	mov    %eax,%ecx
  102dd5:	81 e1 00 04 00 00    	and    $0x400,%ecx
  102ddb:	83 c9 00             	or     $0x0,%ecx
  102dde:	74 03                	je     102de3 <copy_page_table+0x6b>
  102de0:	83 ce 04             	or     $0x4,%esi
  102de3:	25 00 08 00 00       	and    $0x800,%eax
  102de8:	83 c8 00             	or     $0x0,%eax
  102deb:	74 06                	je     102df3 <copy_page_table+0x7b>
  102ded:	81 cf 00 00 00 80    	or     $0x80000000,%edi
  102df3:	89 f0                	mov    %esi,%eax
  102df5:	83 e0 04             	and    $0x4,%eax
  102df8:	83 c8 00             	or     $0x0,%eax
  102dfb:	75 1c                	jne    102e19 <copy_page_table+0xa1>
  102dfd:	89 f0                	mov    %esi,%eax
  102dff:	83 e0 01             	and    $0x1,%eax
  102e02:	83 c8 00             	or     $0x0,%eax
  102e05:	74 12                	je     102e19 <copy_page_table+0xa1>
  102e07:	89 f0                	mov    %esi,%eax
  102e09:	25 00 f0 ff ff       	and    $0xfffff000,%eax
  102e0e:	3d 00 c0 11 00       	cmp    $0x11c000,%eax
  102e13:	74 04                	je     102e19 <copy_page_table+0xa1>
  102e15:	f7 d6                	not    %esi
  102e17:	f7 d7                	not    %edi
  102e19:	8b 45 e8             	mov    -0x18(%ebp),%eax
  102e1c:	89 34 d0             	mov    %esi,(%eax,%edx,8)
  102e1f:	89 7c d0 04          	mov    %edi,0x4(%eax,%edx,8)
  102e23:	42                   	inc    %edx
  102e24:	81 fa 00 02 00 00    	cmp    $0x200,%edx
  102e2a:	0f 85 71 ff ff ff    	jne    102da1 <copy_page_table+0x29>
  102e30:	31 c0                	xor    %eax,%eax
  102e32:	e9 02 01 00 00       	jmp    102f39 <copy_page_table+0x1c1>
  102e37:	8b 45 f0             	mov    -0x10(%ebp),%eax
  102e3a:	8b 7d f0             	mov    -0x10(%ebp),%edi
  102e3d:	8b 04 d8             	mov    (%eax,%ebx,8),%eax
  102e40:	8b 4c df 04          	mov    0x4(%edi,%ebx,8),%ecx
  102e44:	89 c2                	mov    %eax,%edx
  102e46:	83 e2 01             	and    $0x1,%edx
  102e49:	83 ca 00             	or     $0x0,%edx
  102e4c:	75 08                	jne    102e56 <copy_page_table+0xde>
  102e4e:	43                   	inc    %ebx
  102e4f:	3b 5e 08             	cmp    0x8(%esi),%ebx
  102e52:	72 e3                	jb     102e37 <copy_page_table+0xbf>
  102e54:	eb da                	jmp    102e30 <copy_page_table+0xb8>
  102e56:	89 c7                	mov    %eax,%edi
  102e58:	31 d2                	xor    %edx,%edx
  102e5a:	81 e7 80 00 00 00    	and    $0x80,%edi
  102e60:	83 7d e4 01          	cmpl   $0x1,-0x1c(%ebp)
  102e64:	75 2e                	jne    102e94 <copy_page_table+0x11c>
  102e66:	09 fa                	or     %edi,%edx
  102e68:	74 67                	je     102ed1 <copy_page_table+0x159>
  102e6a:	89 c2                	mov    %eax,%edx
  102e6c:	83 e2 04             	and    $0x4,%edx
  102e6f:	83 ca 00             	or     $0x0,%edx
  102e72:	75 14                	jne    102e88 <copy_page_table+0x110>
  102e74:	89 c2                	mov    %eax,%edx
  102e76:	81 e2 00 f0 ff ff    	and    $0xfffff000,%edx
  102e7c:	81 fa 00 c0 11 00    	cmp    $0x11c000,%edx
  102e82:	74 04                	je     102e88 <copy_page_table+0x110>
  102e84:	f7 d0                	not    %eax
  102e86:	f7 d1                	not    %ecx
  102e88:	8b 7d e8             	mov    -0x18(%ebp),%edi
  102e8b:	89 04 df             	mov    %eax,(%edi,%ebx,8)
  102e8e:	89 4c df 04          	mov    %ecx,0x4(%edi,%ebx,8)
  102e92:	eb ba                	jmp    102e4e <copy_page_table+0xd6>
  102e94:	09 fa                	or     %edi,%edx
  102e96:	74 39                	je     102ed1 <copy_page_table+0x159>
  102e98:	68 ae 06 00 00       	push   $0x6ae
  102e9d:	68 74 19 11 00       	push   $0x111974
  102ea2:	68 9f 19 11 00       	push   $0x11199f
  102ea7:	68 ee 10 11 00       	push   $0x1110ee
  102eac:	e8 2c e7 ff ff       	call   1015dd <assert_print>
  102eb1:	83 c4 10             	add    $0x10,%esp
  102eb4:	68 bd 19 11 00       	push   $0x1119bd
  102eb9:	e8 1f e7 ff ff       	call   1015dd <assert_print>
  102ebe:	c7 04 24 ae 06 00 00 	movl   $0x6ae,(%esp)
  102ec5:	68 74 19 11 00       	push   $0x111974
  102eca:	e8 ff e6 ff ff       	call   1015ce <assert_post_action>
  102ecf:	5a                   	pop    %edx
  102ed0:	59                   	pop    %ecx
  102ed1:	a1 0c b5 11 00       	mov    0x11b50c,%eax
  102ed6:	3d 00 d0 12 00       	cmp    $0x12d000,%eax
  102edb:	74 57                	je     102f34 <copy_page_table+0x1bc>
  102edd:	2d 00 10 00 00       	sub    $0x1000,%eax
  102ee2:	b9 00 04 00 00       	mov    $0x400,%ecx
  102ee7:	89 45 ec             	mov    %eax,-0x14(%ebp)
  102eea:	a3 0c b5 11 00       	mov    %eax,0x11b50c
  102eef:	8b 7d ec             	mov    -0x14(%ebp),%edi
  102ef2:	31 c0                	xor    %eax,%eax
  102ef4:	f3 ab                	rep stos %eax,%es:(%edi)
  102ef6:	8b 45 ec             	mov    -0x14(%ebp),%eax
  102ef9:	e8 e8 fd ff ff       	call   102ce6 <k_mem_phys_addr>
  102efe:	8b 7d e8             	mov    -0x18(%ebp),%edi
  102f01:	83 c8 07             	or     $0x7,%eax
  102f04:	89 04 df             	mov    %eax,(%edi,%ebx,8)
  102f07:	31 c0                	xor    %eax,%eax
  102f09:	89 44 df 04          	mov    %eax,0x4(%edi,%ebx,8)
  102f0d:	8b 7d f0             	mov    -0x10(%ebp),%edi
  102f10:	8b 06                	mov    (%esi),%eax
  102f12:	23 04 df             	and    (%edi,%ebx,8),%eax
  102f15:	e8 12 fe ff ff       	call   102d2c <k_mem_virt_addr>
  102f1a:	89 c2                	mov    %eax,%edx
  102f1c:	8b 45 e4             	mov    -0x1c(%ebp),%eax
  102f1f:	8d 48 01             	lea    0x1(%eax),%ecx
  102f22:	8b 45 ec             	mov    -0x14(%ebp),%eax
  102f25:	e8 4e fe ff ff       	call   102d78 <copy_page_table>
  102f2a:	85 c0                	test   %eax,%eax
  102f2c:	0f 84 1c ff ff ff    	je     102e4e <copy_page_table+0xd6>
  102f32:	eb 05                	jmp    102f39 <copy_page_table+0x1c1>
  102f34:	b8 f4 ff ff ff       	mov    $0xfffffff4,%eax
  102f39:	8d 65 f4             	lea    -0xc(%ebp),%esp
  102f3c:	5b                   	pop    %ebx
  102f3d:	5e                   	pop    %esi
  102f3e:	5f                   	pop    %edi
  102f3f:	5d                   	pop    %ebp
  102f40:	c3                   	ret

00102f41 <pentry_get>:
  102f41:	55                   	push   %ebp
  102f42:	89 e5                	mov    %esp,%ebp
  102f44:	57                   	push   %edi
  102f45:	56                   	push   %esi
  102f46:	31 ff                	xor    %edi,%edi
  102f48:	53                   	push   %ebx
  102f49:	be 80 01 11 00       	mov    $0x110180,%esi
  102f4e:	83 ec 08             	sub    $0x8,%esp
  102f51:	89 cb                	mov    %ecx,%ebx
  102f53:	89 45 f0             	mov    %eax,-0x10(%ebp)
  102f56:	89 55 ec             	mov    %edx,-0x14(%ebp)
  102f59:	8b 4e 0c             	mov    0xc(%esi),%ecx
  102f5c:	8b 45 08             	mov    0x8(%ebp),%eax
  102f5f:	d3 e8                	shr    %cl,%eax
  102f61:	31 d2                	xor    %edx,%edx
  102f63:	f7 76 08             	divl   0x8(%esi)
  102f66:	8b 04 d3             	mov    (%ebx,%edx,8),%eax
  102f69:	8b 4c d3 04          	mov    0x4(%ebx,%edx,8),%ecx
  102f6d:	89 c2                	mov    %eax,%edx
  102f6f:	83 e2 01             	and    $0x1,%edx
  102f72:	83 ca 00             	or     $0x0,%edx
  102f75:	74 12                	je     102f89 <pentry_get+0x48>
  102f77:	83 ff 02             	cmp    $0x2,%edi
  102f7a:	74 0d                	je     102f89 <pentry_get+0x48>
  102f7c:	89 c2                	mov    %eax,%edx
  102f7e:	81 e2 80 00 00 00    	and    $0x80,%edx
  102f84:	83 ca 00             	or     $0x0,%edx
  102f87:	74 15                	je     102f9e <pentry_get+0x5d>
  102f89:	8b 5d ec             	mov    -0x14(%ebp),%ebx
  102f8c:	83 7d f0 00          	cmpl   $0x0,-0x10(%ebp)
  102f90:	89 03                	mov    %eax,(%ebx)
  102f92:	89 4b 04             	mov    %ecx,0x4(%ebx)
  102f95:	74 16                	je     102fad <pentry_get+0x6c>
  102f97:	8b 45 f0             	mov    -0x10(%ebp),%eax
  102f9a:	89 38                	mov    %edi,(%eax)
  102f9c:	eb 0f                	jmp    102fad <pentry_get+0x6c>
  102f9e:	23 06                	and    (%esi),%eax
  102fa0:	47                   	inc    %edi
  102fa1:	e8 86 fd ff ff       	call   102d2c <k_mem_virt_addr>
  102fa6:	83 c6 14             	add    $0x14,%esi
  102fa9:	89 c3                	mov    %eax,%ebx
  102fab:	eb ac                	jmp    102f59 <pentry_get+0x18>
  102fad:	58                   	pop    %eax
  102fae:	5a                   	pop    %edx
  102faf:	5b                   	pop    %ebx
  102fb0:	5e                   	pop    %esi
  102fb1:	5f                   	pop    %edi
  102fb2:	5d                   	pop    %ebp
  102fb3:	c3                   	ret

00102fb4 <range_map_ptables>:
  102fb4:	55                   	push   %ebp
  102fb5:	89 e5                	mov    %esp,%ebp
  102fb7:	57                   	push   %edi
  102fb8:	56                   	push   %esi
  102fb9:	53                   	push   %ebx
  102fba:	83 ec 58             	sub    $0x58,%esp
  102fbd:	89 45 ac             	mov    %eax,-0x54(%ebp)
  102fc0:	8b 45 14             	mov    0x14(%ebp),%eax
  102fc3:	89 55 a8             	mov    %edx,-0x58(%ebp)
  102fc6:	89 45 a0             	mov    %eax,-0x60(%ebp)
  102fc9:	8b 45 18             	mov    0x18(%ebp),%eax
  102fcc:	89 45 9c             	mov    %eax,-0x64(%ebp)
  102fcf:	8b 45 08             	mov    0x8(%ebp),%eax
  102fd2:	09 c8                	or     %ecx,%eax
  102fd4:	89 4d c8             	mov    %ecx,-0x38(%ebp)
  102fd7:	25 ff 0f 00 00       	and    $0xfff,%eax
  102fdc:	89 45 e8             	mov    %eax,-0x18(%ebp)
  102fdf:	75 43                	jne    103024 <range_map_ptables+0x70>
  102fe1:	8b 45 0c             	mov    0xc(%ebp),%eax
  102fe4:	25 00 f0 ff ff       	and    $0xfffff000,%eax
  102fe9:	89 45 c4             	mov    %eax,-0x3c(%ebp)
  102fec:	8b 45 10             	mov    0x10(%ebp),%eax
  102fef:	25 ff ff ff 7f       	and    $0x7fffffff,%eax
  102ff4:	89 45 c0             	mov    %eax,-0x40(%ebp)
  102ff7:	0b 45 c4             	or     -0x3c(%ebp),%eax
  102ffa:	75 13                	jne    10300f <range_map_ptables+0x5b>
  102ffc:	8b 45 1c             	mov    0x1c(%ebp),%eax
  102fff:	31 c9                	xor    %ecx,%ecx
  103001:	83 e0 0c             	and    $0xc,%eax
  103004:	89 4d d8             	mov    %ecx,-0x28(%ebp)
  103007:	89 45 b8             	mov    %eax,-0x48(%ebp)
  10300a:	e9 97 00 00 00       	jmp    1030a6 <range_map_ptables+0xf2>
  10300f:	ff 75 10             	push   0x10(%ebp)
  103012:	ff 75 0c             	push   0xc(%ebp)
  103015:	6a 45                	push   $0x45
  103017:	68 d6 19 11 00       	push   $0x1119d6
  10301c:	e8 d7 f4 ff ff       	call   1024f8 <z_log_minimal_printk>
  103021:	83 c4 10             	add    $0x10,%esp
  103024:	c7 45 d8 ea ff ff ff 	movl   $0xffffffea,-0x28(%ebp)
  10302b:	e9 2c 02 00 00       	jmp    10325c <range_map_ptables+0x2a8>
  103030:	8b 45 a8             	mov    -0x58(%ebp),%eax
  103033:	8b 5d e8             	mov    -0x18(%ebp),%ebx
  103036:	01 c3                	add    %eax,%ebx
  103038:	8b 45 c4             	mov    -0x3c(%ebp),%eax
  10303b:	89 45 e0             	mov    %eax,-0x20(%ebp)
  10303e:	8b 45 c0             	mov    -0x40(%ebp),%eax
  103041:	83 7d b8 00          	cmpl   $0x0,-0x48(%ebp)
  103045:	89 45 e4             	mov    %eax,-0x1c(%ebp)
  103048:	75 16                	jne    103060 <range_map_ptables+0xac>
  10304a:	8b 55 e8             	mov    -0x18(%ebp),%edx
  10304d:	8b 45 c8             	mov    -0x38(%ebp),%eax
  103050:	01 d0                	add    %edx,%eax
  103052:	31 d2                	xor    %edx,%edx
  103054:	0b 45 0c             	or     0xc(%ebp),%eax
  103057:	0b 55 10             	or     0x10(%ebp),%edx
  10305a:	89 45 e0             	mov    %eax,-0x20(%ebp)
  10305d:	89 55 e4             	mov    %edx,-0x1c(%ebp)
  103060:	8b 45 1c             	mov    0x1c(%ebp),%eax
  103063:	8b 55 ac             	mov    -0x54(%ebp),%edx
  103066:	83 e0 02             	and    $0x2,%eax
  103069:	89 45 dc             	mov    %eax,-0x24(%ebp)
  10306c:	89 d8                	mov    %ebx,%eax
  10306e:	c1 e8 1e             	shr    $0x1e,%eax
  103071:	8b 04 c2             	mov    (%edx,%eax,8),%eax
  103074:	89 c2                	mov    %eax,%edx
  103076:	81 e2 80 00 00 00    	and    $0x80,%edx
  10307c:	83 ca 00             	or     $0x0,%edx
  10307f:	74 32                	je     1030b3 <range_map_ptables+0xff>
  103081:	6a 45                	push   $0x45
  103083:	68 07 1a 11 00       	push   $0x111a07
  103088:	e8 6b f4 ff ff       	call   1024f8 <z_log_minimal_printk>
  10308d:	58                   	pop    %eax
  10308e:	5a                   	pop    %edx
  10308f:	83 7d dc 00          	cmpl   $0x0,-0x24(%ebp)
  103093:	74 03                	je     103098 <range_map_ptables+0xe4>
  103095:	0f 01 3b             	invlpg (%ebx)
  103098:	c7 45 d8 f2 ff ff ff 	movl   $0xfffffff2,-0x28(%ebp)
  10309f:	81 45 e8 00 10 00 00 	addl   $0x1000,-0x18(%ebp)
  1030a6:	8b 45 e8             	mov    -0x18(%ebp),%eax
  1030a9:	3b 45 08             	cmp    0x8(%ebp),%eax
  1030ac:	72 82                	jb     103030 <range_map_ptables+0x7c>
  1030ae:	e9 a9 01 00 00       	jmp    10325c <range_map_ptables+0x2a8>
  1030b3:	25 00 f0 ff ff       	and    $0xfffff000,%eax
  1030b8:	e8 6f fc ff ff       	call   102d2c <k_mem_virt_addr>
  1030bd:	85 c0                	test   %eax,%eax
  1030bf:	74 37                	je     1030f8 <range_map_ptables+0x144>
  1030c1:	89 da                	mov    %ebx,%edx
  1030c3:	c1 ea 15             	shr    $0x15,%edx
  1030c6:	81 e2 ff 01 00 00    	and    $0x1ff,%edx
  1030cc:	8b 04 d0             	mov    (%eax,%edx,8),%eax
  1030cf:	89 c1                	mov    %eax,%ecx
  1030d1:	81 e1 80 00 00 00    	and    $0x80,%ecx
  1030d7:	89 ca                	mov    %ecx,%edx
  1030d9:	89 4d bc             	mov    %ecx,-0x44(%ebp)
  1030dc:	83 ca 00             	or     $0x0,%edx
  1030df:	75 a0                	jne    103081 <range_map_ptables+0xcd>
  1030e1:	25 00 f0 ff ff       	and    $0xfffff000,%eax
  1030e6:	e8 41 fc ff ff       	call   102d2c <k_mem_virt_addr>
  1030eb:	89 c2                	mov    %eax,%edx
  1030ed:	85 c0                	test   %eax,%eax
  1030ef:	75 1d                	jne    10310e <range_map_ptables+0x15a>
  1030f1:	b8 01 00 00 00       	mov    $0x1,%eax
  1030f6:	eb 02                	jmp    1030fa <range_map_ptables+0x146>
  1030f8:	31 c0                	xor    %eax,%eax
  1030fa:	53                   	push   %ebx
  1030fb:	40                   	inc    %eax
  1030fc:	50                   	push   %eax
  1030fd:	6a 45                	push   $0x45
  1030ff:	68 23 1a 11 00       	push   $0x111a23
  103104:	e8 ef f3 ff ff       	call   1024f8 <z_log_minimal_printk>
  103109:	83 c4 10             	add    $0x10,%esp
  10310c:	eb 81                	jmp    10308f <range_map_ptables+0xdb>
  10310e:	89 d8                	mov    %ebx,%eax
  103110:	c1 e8 09             	shr    $0x9,%eax
  103113:	25 f8 0f 00 00       	and    $0xff8,%eax
  103118:	01 d0                	add    %edx,%eax
  10311a:	89 45 f0             	mov    %eax,-0x10(%ebp)
  10311d:	8b 45 1c             	mov    0x1c(%ebp),%eax
  103120:	83 e0 04             	and    $0x4,%eax
  103123:	89 45 b4             	mov    %eax,-0x4c(%ebp)
  103126:	8b 45 1c             	mov    0x1c(%ebp),%eax
  103129:	83 e0 08             	and    $0x8,%eax
  10312c:	89 45 b0             	mov    %eax,-0x50(%ebp)
  10312f:	8a 45 1c             	mov    0x1c(%ebp),%al
  103132:	83 e0 01             	and    $0x1,%eax
  103135:	88 45 a7             	mov    %al,-0x59(%ebp)
  103138:	8b 45 f0             	mov    -0x10(%ebp),%eax
  10313b:	8b 00                	mov    (%eax),%eax
  10313d:	89 45 ec             	mov    %eax,-0x14(%ebp)
  103140:	8b 45 f0             	mov    -0x10(%ebp),%eax
  103143:	8b 4d ec             	mov    -0x14(%ebp),%ecx
  103146:	8b 40 04             	mov    0x4(%eax),%eax
  103149:	83 e1 01             	and    $0x1,%ecx
  10314c:	89 45 d4             	mov    %eax,-0x2c(%ebp)
  10314f:	83 c9 00             	or     $0x0,%ecx
  103152:	8b 45 ec             	mov    -0x14(%ebp),%eax
  103155:	8b 55 d4             	mov    -0x2c(%ebp),%edx
  103158:	75 19                	jne    103173 <range_map_ptables+0x1bf>
  10315a:	89 c1                	mov    %eax,%ecx
  10315c:	81 e1 80 00 00 00    	and    $0x80,%ecx
  103162:	83 c9 00             	or     $0x0,%ecx
  103165:	74 0c                	je     103173 <range_map_ptables+0x1bf>
  103167:	89 c1                	mov    %eax,%ecx
  103169:	f7 d1                	not    %ecx
  10316b:	89 c8                	mov    %ecx,%eax
  10316d:	89 d1                	mov    %edx,%ecx
  10316f:	f7 d1                	not    %ecx
  103171:	89 ca                	mov    %ecx,%edx
  103173:	83 7d b4 00          	cmpl   $0x0,-0x4c(%ebp)
  103177:	74 43                	je     1031bc <range_map_ptables+0x208>
  103179:	89 c1                	mov    %eax,%ecx
  10317b:	83 e1 f9             	and    $0xfffffff9,%ecx
  10317e:	89 ce                	mov    %ecx,%esi
  103180:	89 d1                	mov    %edx,%ecx
  103182:	81 e1 ff ff ff 7f    	and    $0x7fffffff,%ecx
  103188:	89 cf                	mov    %ecx,%edi
  10318a:	89 c1                	mov    %eax,%ecx
  10318c:	81 e1 00 02 00 00    	and    $0x200,%ecx
  103192:	83 c9 00             	or     $0x0,%ecx
  103195:	74 03                	je     10319a <range_map_ptables+0x1e6>
  103197:	83 ce 02             	or     $0x2,%esi
  10319a:	89 c1                	mov    %eax,%ecx
  10319c:	81 e1 00 04 00 00    	and    $0x400,%ecx
  1031a2:	83 c9 00             	or     $0x0,%ecx
  1031a5:	74 03                	je     1031aa <range_map_ptables+0x1f6>
  1031a7:	83 ce 04             	or     $0x4,%esi
  1031aa:	25 00 08 00 00       	and    $0x800,%eax
  1031af:	83 c8 00             	or     $0x0,%eax
  1031b2:	74 37                	je     1031eb <range_map_ptables+0x237>
  1031b4:	81 cf 00 00 00 80    	or     $0x80000000,%edi
  1031ba:	eb 2f                	jmp    1031eb <range_map_ptables+0x237>
  1031bc:	31 ff                	xor    %edi,%edi
  1031be:	8b 75 bc             	mov    -0x44(%ebp),%esi
  1031c1:	83 7d b0 00          	cmpl   $0x0,-0x50(%ebp)
  1031c5:	75 50                	jne    103217 <range_map_ptables+0x263>
  1031c7:	8b 75 e0             	mov    -0x20(%ebp),%esi
  1031ca:	8b 4d a0             	mov    -0x60(%ebp),%ecx
  1031cd:	31 c6                	xor    %eax,%esi
  1031cf:	8b 7d e4             	mov    -0x1c(%ebp),%edi
  1031d2:	21 f1                	and    %esi,%ecx
  1031d4:	31 d7                	xor    %edx,%edi
  1031d6:	89 4d cc             	mov    %ecx,-0x34(%ebp)
  1031d9:	8b 4d 9c             	mov    -0x64(%ebp),%ecx
  1031dc:	21 f9                	and    %edi,%ecx
  1031de:	33 45 cc             	xor    -0x34(%ebp),%eax
  1031e1:	89 4d d0             	mov    %ecx,-0x30(%ebp)
  1031e4:	89 c6                	mov    %eax,%esi
  1031e6:	33 55 d0             	xor    -0x30(%ebp),%edx
  1031e9:	89 d7                	mov    %edx,%edi
  1031eb:	80 7d a7 00          	cmpb   $0x0,-0x59(%ebp)
  1031ef:	74 26                	je     103217 <range_map_ptables+0x263>
  1031f1:	89 f0                	mov    %esi,%eax
  1031f3:	83 e0 04             	and    $0x4,%eax
  1031f6:	83 c8 00             	or     $0x0,%eax
  1031f9:	75 1c                	jne    103217 <range_map_ptables+0x263>
  1031fb:	89 f0                	mov    %esi,%eax
  1031fd:	83 e0 01             	and    $0x1,%eax
  103200:	83 c8 00             	or     $0x0,%eax
  103203:	74 12                	je     103217 <range_map_ptables+0x263>
  103205:	89 f0                	mov    %esi,%eax
  103207:	25 00 f0 ff ff       	and    $0xfffff000,%eax
  10320c:	3d 00 c0 11 00       	cmp    $0x11c000,%eax
  103211:	74 04                	je     103217 <range_map_ptables+0x263>
  103213:	f7 d6                	not    %esi
  103215:	f7 d7                	not    %edi
  103217:	9c                   	pushf
  103218:	fa                   	cli
  103219:	58                   	pop    %eax
  10321a:	8b 55 f0             	mov    -0x10(%ebp),%edx
  10321d:	8b 4d d4             	mov    -0x2c(%ebp),%ecx
  103220:	3b 4a 04             	cmp    0x4(%edx),%ecx
  103223:	75 15                	jne    10323a <range_map_ptables+0x286>
  103225:	8b 4d ec             	mov    -0x14(%ebp),%ecx
  103228:	3b 0a                	cmp    (%edx),%ecx
  10322a:	75 0e                	jne    10323a <range_map_ptables+0x286>
  10322c:	89 32                	mov    %esi,(%edx)
  10322e:	89 7a 04             	mov    %edi,0x4(%edx)
  103231:	0f ba e0 09          	bt     $0x9,%eax
  103235:	73 13                	jae    10324a <range_map_ptables+0x296>
  103237:	fb                   	sti
  103238:	eb 10                	jmp    10324a <range_map_ptables+0x296>
  10323a:	0f ba e0 09          	bt     $0x9,%eax
  10323e:	0f 83 f4 fe ff ff    	jae    103138 <range_map_ptables+0x184>
  103244:	fb                   	sti
  103245:	e9 ee fe ff ff       	jmp    103138 <range_map_ptables+0x184>
  10324a:	83 7d dc 00          	cmpl   $0x0,-0x24(%ebp)
  10324e:	0f 84 4b fe ff ff    	je     10309f <range_map_ptables+0xeb>
  103254:	0f 01 3b             	invlpg (%ebx)
  103257:	e9 43 fe ff ff       	jmp    10309f <range_map_ptables+0xeb>
  10325c:	8b 45 d8             	mov    -0x28(%ebp),%eax
  10325f:	8d 65 f4             	lea    -0xc(%ebp),%esp
  103262:	5b                   	pop    %ebx
  103263:	5e                   	pop    %esi
  103264:	5f                   	pop    %edi
  103265:	5d                   	pop    %ebp
  103266:	c3                   	ret

00103267 <region_map_update>:
  103267:	55                   	push   %ebp
  103268:	89 e5                	mov    %esp,%ebp
  10326a:	57                   	push   %edi
  10326b:	56                   	push   %esi
  10326c:	89 cf                	mov    %ecx,%edi
  10326e:	53                   	push   %ebx
  10326f:	89 c6                	mov    %eax,%esi
  103271:	83 ec 08             	sub    $0x8,%esp
  103274:	89 55 f0             	mov    %edx,-0x10(%ebp)
  103277:	80 7d 10 01          	cmpb   $0x1,0x10(%ebp)
  10327b:	19 db                	sbb    %ebx,%ebx
  10327d:	83 e3 fc             	and    $0xfffffffc,%ebx
  103280:	83 c3 05             	add    $0x5,%ebx
  103283:	0f 20 d8             	mov    %cr3,%eax
  103286:	e8 a1 fa ff ff       	call   102d2c <k_mem_virt_addr>
  10328b:	39 c6                	cmp    %eax,%esi
  10328d:	75 03                	jne    103292 <region_map_update+0x2b>
  10328f:	83 cb 02             	or     $0x2,%ebx
  103292:	9c                   	pushf
  103293:	fa                   	cli
  103294:	8f 45 ec             	pop    -0x14(%ebp)
  103297:	68 a0 cc 12 00       	push   $0x12cca0
  10329c:	e8 4e 7a 00 00       	call   10acef <z_spin_lock_valid>
  1032a1:	5a                   	pop    %edx
  1032a2:	84 c0                	test   %al,%al
  1032a4:	75 34                	jne    1032da <region_map_update+0x73>
  1032a6:	68 88 00 00 00       	push   $0x88
  1032ab:	68 61 13 11 00       	push   $0x111361
  1032b0:	68 8e 13 11 00       	push   $0x11138e
  1032b5:	68 ee 10 11 00       	push   $0x1110ee
  1032ba:	e8 1e e3 ff ff       	call   1015dd <assert_print>
  1032bf:	83 c4 10             	add    $0x10,%esp
  1032c2:	68 a0 cc 12 00       	push   $0x12cca0
  1032c7:	68 a3 13 11 00       	push   $0x1113a3
  1032cc:	e8 0c e3 ff ff       	call   1015dd <assert_print>
  1032d1:	5f                   	pop    %edi
  1032d2:	58                   	pop    %eax
  1032d3:	68 88 00 00 00       	push   $0x88
  1032d8:	eb 6d                	jmp    103347 <region_map_update+0xe0>
  1032da:	68 a0 cc 12 00       	push   $0x12cca0
  1032df:	e8 63 7a 00 00       	call   10ad47 <z_spin_lock_set_owner>
  1032e4:	89 1c 24             	mov    %ebx,(%esp)
  1032e7:	68 00 00 00 80       	push   $0x80000000
  1032ec:	6a 06                	push   $0x6
  1032ee:	31 c9                	xor    %ecx,%ecx
  1032f0:	ff 75 0c             	push   0xc(%ebp)
  1032f3:	ff 75 08             	push   0x8(%ebp)
  1032f6:	89 f0                	mov    %esi,%eax
  1032f8:	57                   	push   %edi
  1032f9:	8b 55 f0             	mov    -0x10(%ebp),%edx
  1032fc:	e8 b3 fc ff ff       	call   102fb4 <range_map_ptables>
  103301:	83 c4 18             	add    $0x18,%esp
  103304:	89 c3                	mov    %eax,%ebx
  103306:	68 a0 cc 12 00       	push   $0x12cca0
  10330b:	e8 00 7a 00 00       	call   10ad10 <z_spin_unlock_valid>
  103310:	5e                   	pop    %esi
  103311:	84 c0                	test   %al,%al
  103313:	75 3e                	jne    103353 <region_map_update+0xec>
  103315:	68 31 01 00 00       	push   $0x131
  10331a:	68 61 13 11 00       	push   $0x111361
  10331f:	68 e8 13 11 00       	push   $0x1113e8
  103324:	68 ee 10 11 00       	push   $0x1110ee
  103329:	e8 af e2 ff ff       	call   1015dd <assert_print>
  10332e:	83 c4 10             	add    $0x10,%esp
  103331:	68 a0 cc 12 00       	push   $0x12cca0
  103336:	68 ff 13 11 00       	push   $0x1113ff
  10333b:	e8 9d e2 ff ff       	call   1015dd <assert_print>
  103340:	59                   	pop    %ecx
  103341:	5b                   	pop    %ebx
  103342:	68 31 01 00 00       	push   $0x131
  103347:	68 61 13 11 00       	push   $0x111361
  10334c:	e8 7d e2 ff ff       	call   1015ce <assert_post_action>
  103351:	58                   	pop    %eax
  103352:	5a                   	pop    %edx
  103353:	0f ba 65 ec 09       	btl    $0x9,-0x14(%ebp)
  103358:	73 01                	jae    10335b <region_map_update+0xf4>
  10335a:	fb                   	sti
  10335b:	8d 65 f4             	lea    -0xc(%ebp),%esp
  10335e:	89 d8                	mov    %ebx,%eax
  103360:	5b                   	pop    %ebx
  103361:	5e                   	pop    %esi
  103362:	5f                   	pop    %edi
  103363:	5d                   	pop    %ebp
  103364:	c3                   	ret

00103365 <range_map_unlocked>:
  103365:	55                   	push   %ebp
  103366:	89 e5                	mov    %esp,%ebp
  103368:	57                   	push   %edi
  103369:	56                   	push   %esi
  10336a:	53                   	push   %ebx
  10336b:	89 cb                	mov    %ecx,%ebx
  10336d:	83 ec 0c             	sub    $0xc,%esp
  103370:	89 45 f0             	mov    %eax,-0x10(%ebp)
  103373:	89 55 ec             	mov    %edx,-0x14(%ebp)
  103376:	9c                   	pushf
  103377:	fa                   	cli
  103378:	8f 45 e8             	pop    -0x18(%ebp)
  10337b:	68 a0 cc 12 00       	push   $0x12cca0
  103380:	e8 6a 79 00 00       	call   10acef <z_spin_lock_valid>
  103385:	59                   	pop    %ecx
  103386:	84 c0                	test   %al,%al
  103388:	75 37                	jne    1033c1 <range_map_unlocked+0x5c>
  10338a:	68 88 00 00 00       	push   $0x88
  10338f:	68 61 13 11 00       	push   $0x111361
  103394:	68 8e 13 11 00       	push   $0x11138e
  103399:	68 ee 10 11 00       	push   $0x1110ee
  10339e:	e8 3a e2 ff ff       	call   1015dd <assert_print>
  1033a3:	83 c4 10             	add    $0x10,%esp
  1033a6:	68 a0 cc 12 00       	push   $0x12cca0
  1033ab:	68 a3 13 11 00       	push   $0x1113a3
  1033b0:	e8 28 e2 ff ff       	call   1015dd <assert_print>
  1033b5:	58                   	pop    %eax
  1033b6:	5a                   	pop    %edx
  1033b7:	68 88 00 00 00       	push   $0x88
  1033bc:	e9 b0 00 00 00       	jmp    103471 <range_map_unlocked+0x10c>
  1033c1:	68 a0 cc 12 00       	push   $0x12cca0
  1033c6:	e8 7c 79 00 00       	call   10ad47 <z_spin_lock_set_owner>
  1033cb:	5f                   	pop    %edi
  1033cc:	8b 35 98 cc 12 00    	mov    0x12cc98,%esi
  1033d2:	31 ff                	xor    %edi,%edi
  1033d4:	85 f6                	test   %esi,%esi
  1033d6:	74 2f                	je     103407 <range_map_unlocked+0xa2>
  1033d8:	8b 55 18             	mov    0x18(%ebp),%edx
  1033db:	8b 46 fc             	mov    -0x4(%esi),%eax
  1033de:	83 ca 01             	or     $0x1,%edx
  1033e1:	52                   	push   %edx
  1033e2:	ff 75 14             	push   0x14(%ebp)
  1033e5:	ff 75 10             	push   0x10(%ebp)
  1033e8:	ff 75 0c             	push   0xc(%ebp)
  1033eb:	ff 75 08             	push   0x8(%ebp)
  1033ee:	53                   	push   %ebx
  1033ef:	8b 4d ec             	mov    -0x14(%ebp),%ecx
  1033f2:	8b 55 f0             	mov    -0x10(%ebp),%edx
  1033f5:	e8 ba fb ff ff       	call   102fb4 <range_map_ptables>
